
========================================================================

** ELF Header Information

    File Name: .\Objects\LT7211Bfwupgrade.axf

    Machine class: ELFCLASS32 (32-bit)
    Data encoding: ELFDATA2LSB (Little endian)
    Header version: EV_CURRENT (Current version)
    Operating System ABI: none
    ABI Version: 0
    File Type: ET_EXEC (Executable) (2)
    Machine: EM_ARM (ARM)

    Image Entry point: 0x000000c1
    Flags: EF_ARM_HASENTRY + EF_ARM_ABI_FLOAT_SOFT (0x05000202)

    ARM ELF revision: 5 (ABI version 2)

    Conforms to Soft float procedure-call standard

    Built with
    Component: ARM Compiler 5.06 update 6 (build 750) Tool: armasm [4d35ec]
    Component: ARM Compiler 5.06 update 6 (build 750) Tool: armlink [4d35ed]

    Header size: 52 bytes (0x34)
    Program header entry size: 32 bytes (0x20)
    Section header entry size: 40 bytes (0x28)

    Program header entries: 1
    Section header entries: 16

    Program header offset: 341336 (0x00053558)
    Section header offset: 341368 (0x00053578)

    Section header string table index: 15

========================================================================

** Program header #0 (PT_LOAD) [PF_X + PF_W + PF_R + PF_ARM_ENTRY]
    Size : 18212 bytes (13376 bytes in file)
    Virtual address: 0x00000000 (Alignment 8)


========================================================================

** Section #1 'ER_IROM1' (SHT_PROGBITS) [SHF_ALLOC + SHF_EXECINSTR]
    Size   : 8700 bytes (alignment 4)
    Address: 0x00000000

    $d.realdata
    RESET
    __Vectors
        0x00000000:    20002528    (%.     DCD    536880424
        0x00000004:    0000017d    }...    DCD    381
        0x00000008:    00000199    ....    DCD    409
        0x0000000c:    00000161    a...    DCD    353
        0x00000010:    00000000    ....    DCD    0
        0x00000014:    00000000    ....    DCD    0
        0x00000018:    00000000    ....    DCD    0
        0x0000001c:    00000000    ....    DCD    0
        0x00000020:    00000000    ....    DCD    0
        0x00000024:    00000000    ....    DCD    0
        0x00000028:    00000000    ....    DCD    0
        0x0000002c:    0000019d    ....    DCD    413
        0x00000030:    00000000    ....    DCD    0
        0x00000034:    00000000    ....    DCD    0
        0x00000038:    0000019f    ....    DCD    415
        0x0000003c:    000001a1    ....    DCD    417
        0x00000040:    000001a3    ....    DCD    419
        0x00000044:    000001a3    ....    DCD    419
        0x00000048:    000001a3    ....    DCD    419
        0x0000004c:    000001a3    ....    DCD    419
        0x00000050:    000001a3    ....    DCD    419
        0x00000054:    000001a3    ....    DCD    419
        0x00000058:    000001a3    ....    DCD    419
        0x0000005c:    000001a3    ....    DCD    419
        0x00000060:    000001a3    ....    DCD    419
        0x00000064:    000001a3    ....    DCD    419
        0x00000068:    000001a3    ....    DCD    419
        0x0000006c:    000001a3    ....    DCD    419
        0x00000070:    000001a3    ....    DCD    419
        0x00000074:    000001a3    ....    DCD    419
        0x00000078:    000001a3    ....    DCD    419
        0x0000007c:    000001a3    ....    DCD    419
        0x00000080:    000001a3    ....    DCD    419
        0x00000084:    000001a3    ....    DCD    419
        0x00000088:    000001a3    ....    DCD    419
        0x0000008c:    000001a3    ....    DCD    419
        0x00000090:    000001a3    ....    DCD    419
        0x00000094:    000001a3    ....    DCD    419
        0x00000098:    000001a3    ....    DCD    419
        0x0000009c:    000001a3    ....    DCD    419
        0x000000a0:    00000000    ....    DCD    0
        0x000000a4:    000001a3    ....    DCD    419
        0x000000a8:    000001a3    ....    DCD    419
        0x000000ac:    000001a3    ....    DCD    419
        0x000000b0:    000001a3    ....    DCD    419
        0x000000b4:    000001a3    ....    DCD    419
        0x000000b8:    000001a3    ....    DCD    419
        0x000000bc:    000001a3    ....    DCD    419
    $t
    !!!main
    __main
        0x000000c0:    f000f802    ....    BL       __scatterload ; 0xc8
        0x000000c4:    f000f83d    ..=.    BL       __rt_entry ; 0x142
    !!!scatter
    __scatterload
    __scatterload_rt2
    __scatterload_rt2_thumb_only
        0x000000c8:    a00c        ..      ADR      r0,{pc}+0x34 ; 0xfc
        0x000000ca:    c830        0.      LDM      r0!,{r4,r5}
        0x000000cc:    3808        .8      SUBS     r0,r0,#8
        0x000000ce:    1824        $.      ADDS     r4,r4,r0
        0x000000d0:    182d        -.      ADDS     r5,r5,r0
        0x000000d2:    46a2        .F      MOV      r10,r4
        0x000000d4:    1e67        g.      SUBS     r7,r4,#1
        0x000000d6:    46ab        .F      MOV      r11,r5
    __scatterload_null
        0x000000d8:    4654        TF      MOV      r4,r10
        0x000000da:    465d        ]F      MOV      r5,r11
        0x000000dc:    42ac        .B      CMP      r4,r5
        0x000000de:    d101        ..      BNE      0xe4 ; __scatterload_null + 12
        0x000000e0:    f000f82f    ../.    BL       __rt_entry ; 0x142
        0x000000e4:    467e        ~F      MOV      r6,pc
        0x000000e6:    3e0f        .>      SUBS     r6,r6,#0xf
        0x000000e8:    cc0f        ..      LDM      r4!,{r0-r3}
        0x000000ea:    46b6        .F      MOV      lr,r6
        0x000000ec:    2601        .&      MOVS     r6,#1
        0x000000ee:    4233        3B      TST      r3,r6
        0x000000f0:    d000        ..      BEQ      0xf4 ; __scatterload_null + 28
        0x000000f2:    1afb        ..      SUBS     r3,r7,r3
        0x000000f4:    46a2        .F      MOV      r10,r4
        0x000000f6:    46ab        .F      MOV      r11,r5
        0x000000f8:    4333        3C      ORRS     r3,r3,r6
        0x000000fa:    4718        .G      BX       r3
    $d
        0x000000fc:    000020e0    . ..    DCD    8416
        0x00000100:    00002100    .!..    DCD    8448
    $t
    !!handler_zi
    __scatterload_zeroinit
        0x00000104:    2300        .#      MOVS     r3,#0
        0x00000106:    2400        .$      MOVS     r4,#0
        0x00000108:    2500        .%      MOVS     r5,#0
        0x0000010a:    2600        .&      MOVS     r6,#0
        0x0000010c:    3a10        .:      SUBS     r2,r2,#0x10
        0x0000010e:    d301        ..      BCC      0x114 ; __scatterload_zeroinit + 16
        0x00000110:    c178        x.      STM      r1!,{r3-r6}
        0x00000112:    d8fb        ..      BHI      0x10c ; __scatterload_zeroinit + 8
        0x00000114:    0752        R.      LSLS     r2,r2,#29
        0x00000116:    d300        ..      BCC      0x11a ; __scatterload_zeroinit + 22
        0x00000118:    c130        0.      STM      r1!,{r4,r5}
        0x0000011a:    d500        ..      BPL      0x11e ; __scatterload_zeroinit + 26
        0x0000011c:    600b        .`      STR      r3,[r1,#0]
        0x0000011e:    4770        pG      BX       lr
    .ARM.Collect$$_printf_percent$$00000000
    _printf_percent
        0x00000120:    b510        ..      PUSH     {r4,lr}
    .ARM.Collect$$_printf_percent$$00000009
    _printf_d
        0x00000122:    2964        d)      CMP      r1,#0x64
        0x00000124:    d102        ..      BNE      _printf_x ; 0x12c
        0x00000126:    f000f867    ..g.    BL       _printf_int_dec ; 0x1f8
        0x0000012a:    bd10        ..      POP      {r4,pc}
    .ARM.Collect$$_printf_percent$$0000000C
    _printf_x
        0x0000012c:    2978        x)      CMP      r1,#0x78
        0x0000012e:    d102        ..      BNE      _printf_percent_end ; 0x136
        0x00000130:    f000f898    ....    BL       _printf_int_hex ; 0x264
        0x00000134:    bd10        ..      POP      {r4,pc}
    .ARM.Collect$$_printf_percent$$00000017
    _printf_percent_end
        0x00000136:    2000        .       MOVS     r0,#0
        0x00000138:    bd10        ..      POP      {r4,pc}
    .ARM.Collect$$libinit$$00000000
    __rt_lib_init
        0x0000013a:    b51f        ..      PUSH     {r0-r4,lr}
    .ARM.Collect$$libinit$$00000002
    .ARM.Collect$$libinit$$00000004
    .ARM.Collect$$libinit$$0000000A
    .ARM.Collect$$libinit$$0000000C
    .ARM.Collect$$libinit$$0000000E
    .ARM.Collect$$libinit$$00000011
    .ARM.Collect$$libinit$$00000013
    .ARM.Collect$$libinit$$00000015
    .ARM.Collect$$libinit$$00000017
    .ARM.Collect$$libinit$$00000019
    .ARM.Collect$$libinit$$0000001B
    .ARM.Collect$$libinit$$0000001D
    .ARM.Collect$$libinit$$0000001F
    .ARM.Collect$$libinit$$00000021
    .ARM.Collect$$libinit$$00000023
    .ARM.Collect$$libinit$$00000025
    .ARM.Collect$$libinit$$0000002C
    .ARM.Collect$$libinit$$0000002E
    .ARM.Collect$$libinit$$00000030
    .ARM.Collect$$libinit$$00000032
    .ARM.Collect$$libinit$$00000033
    __rt_lib_init_alloca_1
    __rt_lib_init_argv_1
    __rt_lib_init_atexit_1
    __rt_lib_init_clock_1
    __rt_lib_init_cpp_1
    __rt_lib_init_exceptions_1
    __rt_lib_init_fp_1
    __rt_lib_init_fp_trap_1
    __rt_lib_init_getenv_1
    __rt_lib_init_heap_1
    __rt_lib_init_lc_collate_1
    __rt_lib_init_lc_ctype_1
    __rt_lib_init_lc_monetary_1
    __rt_lib_init_lc_numeric_1
    __rt_lib_init_lc_time_1
    __rt_lib_init_preinit_1
    __rt_lib_init_rand_1
    __rt_lib_init_return
    __rt_lib_init_signal_1
    __rt_lib_init_stdio_1
    __rt_lib_init_user_alloc_1
        0x0000013c:    bd1f        ..      POP      {r0-r4,pc}
    .ARM.Collect$$libshutdown$$00000000
    __rt_lib_shutdown
        0x0000013e:    b510        ..      PUSH     {r4,lr}
    .ARM.Collect$$libshutdown$$00000002
    .ARM.Collect$$libshutdown$$00000004
    .ARM.Collect$$libshutdown$$00000007
    .ARM.Collect$$libshutdown$$0000000A
    .ARM.Collect$$libshutdown$$0000000C
    .ARM.Collect$$libshutdown$$0000000F
    .ARM.Collect$$libshutdown$$00000010
    __rt_lib_shutdown_cpp_1
    __rt_lib_shutdown_fp_trap_1
    __rt_lib_shutdown_heap_1
    __rt_lib_shutdown_return
    __rt_lib_shutdown_signal_1
    __rt_lib_shutdown_stdio_1
    __rt_lib_shutdown_user_alloc_1
        0x00000140:    bd10        ..      POP      {r4,pc}
    .ARM.Collect$$rtentry$$00000000
    .ARM.Collect$$rtentry$$00000002
    .ARM.Collect$$rtentry$$00000004
    __rt_entry
    __rt_entry_presh_1
    __rt_entry_sh
        0x00000142:    f000fab7    ....    BL       __user_setup_stackheap ; 0x6b4
        0x00000146:    4611        .F      MOV      r1,r2
    .ARM.Collect$$rtentry$$00000009
    .ARM.Collect$$rtentry$$0000000A
    __rt_entry_li
    __rt_entry_postsh_1
        0x00000148:    f7fffff7    ....    BL       __rt_lib_init ; 0x13a
    .ARM.Collect$$rtentry$$0000000C
    .ARM.Collect$$rtentry$$0000000D
    __rt_entry_main
    __rt_entry_postli_1
        0x0000014c:    f001fe56    ..V.    BL       main ; 0x1dfc
        0x00000150:    f000facf    ....    BL       exit ; 0x6f2
    .ARM.Collect$$rtexit$$00000000
    __rt_exit
        0x00000154:    b403        ..      PUSH     {r0,r1}
    .ARM.Collect$$rtexit$$00000002
    .ARM.Collect$$rtexit$$00000003
    __rt_exit_ls
    __rt_exit_prels_1
        0x00000156:    f7fffff2    ....    BL       __rt_lib_shutdown ; 0x13e
    .ARM.Collect$$rtexit$$00000004
    __rt_exit_exit
        0x0000015a:    bc03        ..      POP      {r0,r1}
        0x0000015c:    f000fad6    ....    BL       _sys_exit ; 0x70c
    .emb_text
    HardFault_Handler
        0x00000160:    2004        .       MOVS     r0,#4
        0x00000162:    4671        qF      MOV      r1,lr
        0x00000164:    4208        .B      TST      r0,r1
        0x00000166:    d002        ..      BEQ      0x16e ; HardFault_Handler + 14
        0x00000168:    f3ef8009    ....    MRS      r0,PSP
        0x0000016c:    e001        ..      B        0x172 ; HardFault_Handler + 18
        0x0000016e:    f3ef8008    ....    MRS      r0,MSP
        0x00000172:    4671        qF      MOV      r1,lr
        0x00000174:    4a00        .J      LDR      r2,[pc,#0] ; [0x178] = 0xdfd
        0x00000176:    4710        .G      BX       r2
    $d
        0x00000178:    00000dfd    ....    DCD    3581
    $t
    .text
    Reset_Handler
        0x0000017c:    480c        .H      LDR      r0,[pc,#48] ; [0x1b0] = 0x50000100
        0x0000017e:    490d        .I      LDR      r1,[pc,#52] ; [0x1b4] = 0x59
        0x00000180:    6001        .`      STR      r1,[r0,#0]
        0x00000182:    490d        .I      LDR      r1,[pc,#52] ; [0x1b8] = 0x16
        0x00000184:    6001        .`      STR      r1,[r0,#0]
        0x00000186:    490d        .I      LDR      r1,[pc,#52] ; [0x1bc] = 0x88
        0x00000188:    6001        .`      STR      r1,[r0,#0]
        0x0000018a:    4a0d        .J      LDR      r2,[pc,#52] ; [0x1c0] = 0x50000060
        0x0000018c:    490d        .I      LDR      r1,[pc,#52] ; [0x1c4] = 0x5aa5
        0x0000018e:    6011        .`      STR      r1,[r2,#0]
        0x00000190:    2100        .!      MOVS     r1,#0
        0x00000192:    6001        .`      STR      r1,[r0,#0]
        0x00000194:    480c        .H      LDR      r0,[pc,#48] ; [0x1c8] = 0xc1
        0x00000196:    4700        .G      BX       r0
    NMI_Handler
        0x00000198:    e7fe        ..      B        NMI_Handler ; 0x198
        0x0000019a:    e7fe        ..      B        0x19a ; NMI_Handler + 2
    SVC_Handler
        0x0000019c:    e7fe        ..      B        SVC_Handler ; 0x19c
    PendSV_Handler
        0x0000019e:    e7fe        ..      B        PendSV_Handler ; 0x19e
    SysTick_Handler
        0x000001a0:    e7fe        ..      B        SysTick_Handler ; 0x1a0
    ADC_IRQHandler
    BOD_IRQHandler
    DAC_IRQHandler
    EINT0_IRQHandler
    EINT1_IRQHandler
    GPABC_IRQHandler
    GPDEF_IRQHandler
    HIRC_IRQHandler
    I2C0_IRQHandler
    I2C1_IRQHandler
    I2S_IRQHandler
    LCD_IRQHandler
    PDMA_IRQHandler
    PDWU_IRQHandler
    PWM0_IRQHandler
    PWM1_IRQHandler
    RTC_IRQHandler
    SC0_IRQHandler
    SC1_IRQHandler
    SC2_IRQHandler
    SPI0_IRQHandler
    SPI1_IRQHandler
    SPI2_IRQHandler
    TMR0_IRQHandler
    TMR1_IRQHandler
    TMR2_IRQHandler
    TMR3_IRQHandler
    UART0_IRQHandler
    UART1_IRQHandler
    USBD_IRQHandler
    WDT_IRQHandler
        0x000001a2:    e7fe        ..      B        ADC_IRQHandler ; 0x1a2
    __user_initial_stackheap
        0x000001a4:    4809        .H      LDR      r0,[pc,#36] ; [0x1cc] = 0x20001b28
        0x000001a6:    490a        .I      LDR      r1,[pc,#40] ; [0x1d0] = 0x20002528
        0x000001a8:    4a0a        .J      LDR      r2,[pc,#40] ; [0x1d4] = 0x20002028
        0x000001aa:    4b0b        .K      LDR      r3,[pc,#44] ; [0x1d8] = 0x20002028
        0x000001ac:    4770        pG      BX       lr
    $d
        0x000001ae:    0000        ..      DCW    0
        0x000001b0:    50000100    ...P    DCD    1342177536
        0x000001b4:    00000059    Y...    DCD    89
        0x000001b8:    00000016    ....    DCD    22
        0x000001bc:    00000088    ....    DCD    136
        0x000001c0:    50000060    `..P    DCD    1342177376
        0x000001c4:    00005aa5    .Z..    DCD    23205
        0x000001c8:    000000c1    ....    DCD    193
        0x000001cc:    20001b28    (..     DCD    536877864
        0x000001d0:    20002528    (%.     DCD    536880424
        0x000001d4:    20002028    ( .     DCD    536879144
        0x000001d8:    20002028    ( .     DCD    536879144
    $t
    .text
    __2printf
        0x000001dc:    b40f        ..      PUSH     {r0-r3}
        0x000001de:    4905        .I      LDR      r1,[pc,#20] ; [0x1f4] = 0x20000008
        0x000001e0:    b510        ..      PUSH     {r4,lr}
        0x000001e2:    aa03        ..      ADD      r2,sp,#0xc
        0x000001e4:    9802        ..      LDR      r0,[sp,#8]
        0x000001e6:    f000fa21    ..!.    BL       _printf_char_file ; 0x62c
        0x000001ea:    bc10        ..      POP      {r4}
        0x000001ec:    bc08        ..      POP      {r3}
        0x000001ee:    b004        ..      ADD      sp,sp,#0x10
        0x000001f0:    4718        .G      BX       r3
    $d
        0x000001f2:    0000        ..      DCW    0
        0x000001f4:    20000008    ...     DCD    536870920
    $t
    .text
    _printf_int_dec
        0x000001f8:    b5f7        ..      PUSH     {r0-r2,r4-r7,lr}
        0x000001fa:    2500        .%      MOVS     r5,#0
        0x000001fc:    2975        u)      CMP      r1,#0x75
        0x000001fe:    6810        .h      LDR      r0,[r2,#0]
        0x00000200:    9900        ..      LDR      r1,[sp,#0]
        0x00000202:    a614        ..      ADR      r6,{pc}+0x52 ; 0x254
        0x00000204:    d011        ..      BEQ      0x22a ; _printf_int_dec + 50
        0x00000206:    46c0        .F      MOV      r8,r8
        0x00000208:    46c0        .F      MOV      r8,r8
        0x0000020a:    2800        .(      CMP      r0,#0
        0x0000020c:    da02        ..      BGE      0x214 ; _printf_int_dec + 28
        0x0000020e:    4240        @B      RSBS     r0,r0,#0
        0x00000210:    a611        ..      ADR      r6,{pc}+0x48 ; 0x258
        0x00000212:    e008        ..      B        0x226 ; _printf_int_dec + 46
        0x00000214:    9900        ..      LDR      r1,[sp,#0]
        0x00000216:    6809        .h      LDR      r1,[r1,#0]
        0x00000218:    078a        ..      LSLS     r2,r1,#30
        0x0000021a:    d501        ..      BPL      0x220 ; _printf_int_dec + 40
        0x0000021c:    a60f        ..      ADR      r6,{pc}+0x40 ; 0x25c
        0x0000021e:    e002        ..      B        0x226 ; _printf_int_dec + 46
        0x00000220:    0749        I.      LSLS     r1,r1,#29
        0x00000222:    d504        ..      BPL      0x22e ; _printf_int_dec + 54
        0x00000224:    a60e        ..      ADR      r6,{pc}+0x3c ; 0x260
        0x00000226:    2501        .%      MOVS     r5,#1
        0x00000228:    e001        ..      B        0x22e ; _printf_int_dec + 54
        0x0000022a:    46c0        .F      MOV      r8,r8
        0x0000022c:    46c0        .F      MOV      r8,r8
        0x0000022e:    9f00        ..      LDR      r7,[sp,#0]
        0x00000230:    2400        .$      MOVS     r4,#0
        0x00000232:    3724        $7      ADDS     r7,r7,#0x24
        0x00000234:    e004        ..      B        0x240 ; _printf_int_dec + 72
        0x00000236:    f000fa0d    ....    BL       __rt_udiv10 ; 0x654
        0x0000023a:    3130        01      ADDS     r1,r1,#0x30
        0x0000023c:    5539        9U      STRB     r1,[r7,r4]
        0x0000023e:    1c64        d.      ADDS     r4,r4,#1
        0x00000240:    2800        .(      CMP      r0,#0
        0x00000242:    d1f8        ..      BNE      0x236 ; _printf_int_dec + 62
        0x00000244:    462b        +F      MOV      r3,r5
        0x00000246:    4632        2F      MOV      r2,r6
        0x00000248:    4621        !F      MOV      r1,r4
        0x0000024a:    9800        ..      LDR      r0,[sp,#0]
        0x0000024c:    f000f996    ....    BL       _printf_int_common ; 0x57c
        0x00000250:    bdfe        ..      POP      {r1-r7,pc}
    $d
        0x00000252:    0000        ..      DCW    0
        0x00000254:    00000000    ....    DCD    0
        0x00000258:    0000002d    -...    DCD    45
        0x0000025c:    0000002b    +...    DCD    43
        0x00000260:    00000020     ...    DCD    32
    $t
    .text
    _printf_int_hex
    _printf_longlong_hex
        0x00000264:    b570        p.      PUSH     {r4-r6,lr}
        0x00000266:    4604        .F      MOV      r4,r0
        0x00000268:    460d        .F      MOV      r5,r1
        0x0000026a:    4621        !F      MOV      r1,r4
        0x0000026c:    6810        .h      LDR      r0,[r2,#0]
        0x0000026e:    46c0        .F      MOV      r8,r8
        0x00000270:    46c0        .F      MOV      r8,r8
        0x00000272:    8821        !.      LDRH     r1,[r4,#0]
        0x00000274:    0509        ..      LSLS     r1,r1,#20
        0x00000276:    d502        ..      BPL      0x27e ; _printf_int_hex + 26
        0x00000278:    4a0f        .J      LDR      r2,[pc,#60] ; [0x2b8] = 0x1e4e
        0x0000027a:    447a        zD      ADD      r2,r2,pc
        0x0000027c:    e002        ..      B        0x284 ; _printf_int_hex + 32
        0x0000027e:    4a0e        .J      LDR      r2,[pc,#56] ; [0x2b8] = 0x1e4e
        0x00000280:    447a        zD      ADD      r2,r2,pc
        0x00000282:    320e        .2      ADDS     r2,r2,#0xe
        0x00000284:    4623        #F      MOV      r3,r4
        0x00000286:    2100        .!      MOVS     r1,#0
        0x00000288:    3324        $3      ADDS     r3,r3,#0x24
        0x0000028a:    e005        ..      B        0x298 ; _printf_int_hex + 52
        0x0000028c:    0706        ..      LSLS     r6,r0,#28
        0x0000028e:    0900        ..      LSRS     r0,r0,#4
        0x00000290:    0f36        6.      LSRS     r6,r6,#28
        0x00000292:    5d96        .]      LDRB     r6,[r2,r6]
        0x00000294:    545e        ^T      STRB     r6,[r3,r1]
        0x00000296:    1c49        I.      ADDS     r1,r1,#1
        0x00000298:    2800        .(      CMP      r0,#0
        0x0000029a:    d1f7        ..      BNE      0x28c ; _printf_int_hex + 40
        0x0000029c:    7820         x      LDRB     r0,[r4,#0]
        0x0000029e:    2300        .#      MOVS     r3,#0
        0x000002a0:    0700        ..      LSLS     r0,r0,#28
        0x000002a2:    d505        ..      BPL      0x2b0 ; _printf_int_hex + 76
        0x000002a4:    2d70        p-      CMP      r5,#0x70
        0x000002a6:    d003        ..      BEQ      0x2b0 ; _printf_int_hex + 76
        0x000002a8:    2900        .)      CMP      r1,#0
        0x000002aa:    d001        ..      BEQ      0x2b0 ; _printf_int_hex + 76
        0x000002ac:    2302        .#      MOVS     r3,#2
        0x000002ae:    3211        .2      ADDS     r2,r2,#0x11
        0x000002b0:    4620         F      MOV      r0,r4
        0x000002b2:    f000f963    ..c.    BL       _printf_int_common ; 0x57c
        0x000002b6:    bd70        p.      POP      {r4-r6,pc}
    $d
        0x000002b8:    00001e4e    N...    DCD    7758
    $t
    .text
    __printf
        0x000002bc:    b5f3        ..      PUSH     {r0,r1,r4-r7,lr}
        0x000002be:    4604        .F      MOV      r4,r0
        0x000002c0:    2000        .       MOVS     r0,#0
        0x000002c2:    b081        ..      SUB      sp,sp,#4
        0x000002c4:    6220         b      STR      r0,[r4,#0x20]
        0x000002c6:    4620         F      MOV      r0,r4
        0x000002c8:    68e1        .h      LDR      r1,[r4,#0xc]
        0x000002ca:    4788        .G      BLX      r1
        0x000002cc:    2800        .(      CMP      r0,#0
        0x000002ce:    d07a        z.      BEQ      0x3c6 ; __printf + 266
        0x000002d0:    2825        %(      CMP      r0,#0x25
        0x000002d2:    d002        ..      BEQ      0x2da ; __printf + 30
        0x000002d4:    6862        bh      LDR      r2,[r4,#4]
        0x000002d6:    68a1        .h      LDR      r1,[r4,#8]
        0x000002d8:    e071        q.      B        0x3be ; __printf + 258
        0x000002da:    68e1        .h      LDR      r1,[r4,#0xc]
        0x000002dc:    4620         F      MOV      r0,r4
        0x000002de:    2500        .%      MOVS     r5,#0
        0x000002e0:    4788        .G      BLX      r1
        0x000002e2:    4606        .F      MOV      r6,r0
        0x000002e4:    2000        .       MOVS     r0,#0
        0x000002e6:    61e0        .a      STR      r0,[r4,#0x1c]
        0x000002e8:    4607        .F      MOV      r7,r0
        0x000002ea:    61a0        .a      STR      r0,[r4,#0x18]
        0x000002ec:    2e2a        *.      CMP      r6,#0x2a
        0x000002ee:    d00a        ..      BEQ      0x306 ; __printf + 74
        0x000002f0:    4630        0F      MOV      r0,r6
        0x000002f2:    f001fc4d    ..M.    BL       _is_digit ; 0x1b90
        0x000002f6:    2800        .(      CMP      r0,#0
        0x000002f8:    d027        '.      BEQ      0x34a ; __printf + 142
        0x000002fa:    00b8        ..      LSLS     r0,r7,#2
        0x000002fc:    1900        ..      ADDS     r0,r0,r4
        0x000002fe:    3e30        0>      SUBS     r6,r6,#0x30
        0x00000300:    9000        ..      STR      r0,[sp,#0]
        0x00000302:    6186        .a      STR      r6,[r0,#0x18]
        0x00000304:    e019        ..      B        0x33a ; __printf + 126
        0x00000306:    9802        ..      LDR      r0,[sp,#8]
        0x00000308:    00ba        ..      LSLS     r2,r7,#2
        0x0000030a:    1912        ..      ADDS     r2,r2,r4
        0x0000030c:    c802        ..      LDM      r0!,{r1}
        0x0000030e:    6191        .a      STR      r1,[r2,#0x18]
        0x00000310:    9002        ..      STR      r0,[sp,#8]
        0x00000312:    4620         F      MOV      r0,r4
        0x00000314:    68e1        .h      LDR      r1,[r4,#0xc]
        0x00000316:    4788        .G      BLX      r1
        0x00000318:    2f01        ./      CMP      r7,#1
        0x0000031a:    4606        .F      MOV      r6,r0
        0x0000031c:    d117        ..      BNE      0x34e ; __printf + 146
        0x0000031e:    69e0        .i      LDR      r0,[r4,#0x1c]
        0x00000320:    2800        .(      CMP      r0,#0
        0x00000322:    da1f        ..      BGE      0x364 ; __printf + 168
        0x00000324:    2020                MOVS     r0,#0x20
        0x00000326:    4385        .C      BICS     r5,r5,r0
        0x00000328:    e01c        ..      B        0x364 ; __printf + 168
        0x0000032a:    9800        ..      LDR      r0,[sp,#0]
        0x0000032c:    210a        .!      MOVS     r1,#0xa
        0x0000032e:    6980        .i      LDR      r0,[r0,#0x18]
        0x00000330:    4348        HC      MULS     r0,r1,r0
        0x00000332:    9900        ..      LDR      r1,[sp,#0]
        0x00000334:    1980        ..      ADDS     r0,r0,r6
        0x00000336:    3830        08      SUBS     r0,r0,#0x30
        0x00000338:    6188        .a      STR      r0,[r1,#0x18]
        0x0000033a:    4620         F      MOV      r0,r4
        0x0000033c:    68e1        .h      LDR      r1,[r4,#0xc]
        0x0000033e:    4788        .G      BLX      r1
        0x00000340:    4606        .F      MOV      r6,r0
        0x00000342:    f001fc25    ..%.    BL       _is_digit ; 0x1b90
        0x00000346:    2800        .(      CMP      r0,#0
        0x00000348:    d1ef        ..      BNE      0x32a ; __printf + 110
        0x0000034a:    2f01        ./      CMP      r7,#1
        0x0000034c:    d00a        ..      BEQ      0x364 ; __printf + 168
        0x0000034e:    2e2e        ..      CMP      r6,#0x2e
        0x00000350:    d108        ..      BNE      0x364 ; __printf + 168
        0x00000352:    4620         F      MOV      r0,r4
        0x00000354:    68e1        .h      LDR      r1,[r4,#0xc]
        0x00000356:    4788        .G      BLX      r1
        0x00000358:    4606        .F      MOV      r6,r0
        0x0000035a:    2020                MOVS     r0,#0x20
        0x0000035c:    4305        .C      ORRS     r5,r5,r0
        0x0000035e:    1c7f        ..      ADDS     r7,r7,#1
        0x00000360:    2f02        ./      CMP      r7,#2
        0x00000362:    dbc3        ..      BLT      0x2ec ; __printf + 48
        0x00000364:    69a0        .i      LDR      r0,[r4,#0x18]
        0x00000366:    2800        .(      CMP      r0,#0
        0x00000368:    da03        ..      BGE      0x372 ; __printf + 182
        0x0000036a:    4240        @B      RSBS     r0,r0,#0
        0x0000036c:    61a0        .a      STR      r0,[r4,#0x18]
        0x0000036e:    2001        .       MOVS     r0,#1
        0x00000370:    4305        .C      ORRS     r5,r5,r0
        0x00000372:    07e8        ..      LSLS     r0,r5,#31
        0x00000374:    d001        ..      BEQ      0x37a ; __printf + 190
        0x00000376:    2010        .       MOVS     r0,#0x10
        0x00000378:    4385        .C      BICS     r5,r5,r0
        0x0000037a:    2e00        ..      CMP      r6,#0
        0x0000037c:    d023        #.      BEQ      0x3c6 ; __printf + 266
        0x0000037e:    4630        0F      MOV      r0,r6
        0x00000380:    3841        A8      SUBS     r0,r0,#0x41
        0x00000382:    2819        .(      CMP      r0,#0x19
        0x00000384:    d803        ..      BHI      0x38e ; __printf + 210
        0x00000386:    2001        .       MOVS     r0,#1
        0x00000388:    02c0        ..      LSLS     r0,r0,#11
        0x0000038a:    4305        .C      ORRS     r5,r5,r0
        0x0000038c:    3620         6      ADDS     r6,r6,#0x20
        0x0000038e:    4620         F      MOV      r0,r4
        0x00000390:    6025        %`      STR      r5,[r4,#0]
        0x00000392:    4631        1F      MOV      r1,r6
        0x00000394:    9a02        ..      LDR      r2,[sp,#8]
        0x00000396:    4615        .F      MOV      r5,r2
        0x00000398:    f7fffec2    ....    BL       _printf_percent ; 0x120
        0x0000039c:    2800        .(      CMP      r0,#0
        0x0000039e:    d00b        ..      BEQ      0x3b8 ; __printf + 252
        0x000003a0:    2801        .(      CMP      r0,#1
        0x000003a2:    d006        ..      BEQ      0x3b2 ; __printf + 246
        0x000003a4:    1ded        ..      ADDS     r5,r5,#7
        0x000003a6:    08e8        ..      LSRS     r0,r5,#3
        0x000003a8:    00c0        ..      LSLS     r0,r0,#3
        0x000003aa:    3008        .0      ADDS     r0,r0,#8
        0x000003ac:    9002        ..      STR      r0,[sp,#8]
        0x000003ae:    e78a        ..      B        0x2c6 ; __printf + 10
        0x000003b0:    e009        ..      B        0x3c6 ; __printf + 266
        0x000003b2:    1d2d        -.      ADDS     r5,r5,#4
        0x000003b4:    9502        ..      STR      r5,[sp,#8]
        0x000003b6:    e786        ..      B        0x2c6 ; __printf + 10
        0x000003b8:    6862        bh      LDR      r2,[r4,#4]
        0x000003ba:    4630        0F      MOV      r0,r6
        0x000003bc:    68a1        .h      LDR      r1,[r4,#8]
        0x000003be:    4790        .G      BLX      r2
        0x000003c0:    6a20         j      LDR      r0,[r4,#0x20]
        0x000003c2:    1c40        @.      ADDS     r0,r0,#1
        0x000003c4:    e77e        ~.      B        0x2c4 ; __printf + 8
        0x000003c6:    6a20         j      LDR      r0,[r4,#0x20]
        0x000003c8:    bdfe        ..      POP      {r1-r7,pc}
    .text
    __aeabi_memset
        0x000003ca:    b2d2        ..      UXTB     r2,r2
        0x000003cc:    b510        ..      PUSH     {r4,lr}
        0x000003ce:    0213        ..      LSLS     r3,r2,#8
        0x000003d0:    189a        ..      ADDS     r2,r3,r2
        0x000003d2:    0413        ..      LSLS     r3,r2,#16
        0x000003d4:    189a        ..      ADDS     r2,r3,r2
        0x000003d6:    f000f80e    ....    BL       _memset ; 0x3f6
        0x000003da:    bd10        ..      POP      {r4,pc}
    .text
    _memset_w
        0x000003dc:    e001        ..      B        0x3e2 ; _memset_w + 6
        0x000003de:    c004        ..      STM      r0!,{r2}
        0x000003e0:    1f09        ..      SUBS     r1,r1,#4
        0x000003e2:    2904        .)      CMP      r1,#4
        0x000003e4:    d2fb        ..      BCS      0x3de ; _memset_w + 2
        0x000003e6:    078b        ..      LSLS     r3,r1,#30
        0x000003e8:    d501        ..      BPL      0x3ee ; _memset_w + 18
        0x000003ea:    8002        ..      STRH     r2,[r0,#0]
        0x000003ec:    1c80        ..      ADDS     r0,r0,#2
        0x000003ee:    07c9        ..      LSLS     r1,r1,#31
        0x000003f0:    d000        ..      BEQ      0x3f4 ; _memset_w + 24
        0x000003f2:    7002        .p      STRB     r2,[r0,#0]
        0x000003f4:    4770        pG      BX       lr
    _memset
        0x000003f6:    2900        .)      CMP      r1,#0
        0x000003f8:    d00b        ..      BEQ      0x412 ; _memset + 28
        0x000003fa:    07c3        ..      LSLS     r3,r0,#31
        0x000003fc:    d002        ..      BEQ      0x404 ; _memset + 14
        0x000003fe:    7002        .p      STRB     r2,[r0,#0]
        0x00000400:    1c40        @.      ADDS     r0,r0,#1
        0x00000402:    1e49        I.      SUBS     r1,r1,#1
        0x00000404:    2902        .)      CMP      r1,#2
        0x00000406:    d304        ..      BCC      0x412 ; _memset + 28
        0x00000408:    0783        ..      LSLS     r3,r0,#30
        0x0000040a:    d502        ..      BPL      0x412 ; _memset + 28
        0x0000040c:    8002        ..      STRH     r2,[r0,#0]
        0x0000040e:    1c80        ..      ADDS     r0,r0,#2
        0x00000410:    1e89        ..      SUBS     r1,r1,#2
        0x00000412:    e7e3        ..      B        _memset_w ; 0x3dc
    __aeabi_memclr
    __rt_memclr
        0x00000414:    2200        ."      MOVS     r2,#0
        0x00000416:    e7ee        ..      B        _memset ; 0x3f6
    __aeabi_memclr4
    __aeabi_memclr8
    __rt_memclr_w
        0x00000418:    2200        ."      MOVS     r2,#0
        0x0000041a:    e7df        ..      B        _memset_w ; 0x3dc
    .text
    __aeabi_uidiv
    __aeabi_uidivmod
        0x0000041c:    2200        ."      MOVS     r2,#0
        0x0000041e:    0903        ..      LSRS     r3,r0,#4
        0x00000420:    428b        .B      CMP      r3,r1
        0x00000422:    d32c        ,.      BCC      0x47e ; __aeabi_idiv + 78
        0x00000424:    0a03        ..      LSRS     r3,r0,#8
        0x00000426:    428b        .B      CMP      r3,r1
        0x00000428:    d311        ..      BCC      0x44e ; __aeabi_idiv + 30
        0x0000042a:    2300        .#      MOVS     r3,#0
        0x0000042c:    469c        .F      MOV      r12,r3
        0x0000042e:    e04e        N.      B        0x4ce ; __aeabi_idiv + 158
    __aeabi_idiv
    __aeabi_idivmod
        0x00000430:    4603        .F      MOV      r3,r0
        0x00000432:    430b        .C      ORRS     r3,r3,r1
        0x00000434:    d43c        <.      BMI      0x4b0 ; __aeabi_idiv + 128
        0x00000436:    2200        ."      MOVS     r2,#0
        0x00000438:    0843        C.      LSRS     r3,r0,#1
        0x0000043a:    428b        .B      CMP      r3,r1
        0x0000043c:    d331        1.      BCC      0x4a2 ; __aeabi_idiv + 114
        0x0000043e:    0903        ..      LSRS     r3,r0,#4
        0x00000440:    428b        .B      CMP      r3,r1
        0x00000442:    d31c        ..      BCC      0x47e ; __aeabi_idiv + 78
        0x00000444:    0a03        ..      LSRS     r3,r0,#8
        0x00000446:    428b        .B      CMP      r3,r1
        0x00000448:    d301        ..      BCC      0x44e ; __aeabi_idiv + 30
        0x0000044a:    4694        .F      MOV      r12,r2
        0x0000044c:    e03f        ?.      B        0x4ce ; __aeabi_idiv + 158
        0x0000044e:    09c3        ..      LSRS     r3,r0,#7
        0x00000450:    428b        .B      CMP      r3,r1
        0x00000452:    d301        ..      BCC      0x458 ; __aeabi_idiv + 40
        0x00000454:    01cb        ..      LSLS     r3,r1,#7
        0x00000456:    1ac0        ..      SUBS     r0,r0,r3
        0x00000458:    4152        RA      ADCS     r2,r2,r2
        0x0000045a:    0983        ..      LSRS     r3,r0,#6
        0x0000045c:    428b        .B      CMP      r3,r1
        0x0000045e:    d301        ..      BCC      0x464 ; __aeabi_idiv + 52
        0x00000460:    018b        ..      LSLS     r3,r1,#6
        0x00000462:    1ac0        ..      SUBS     r0,r0,r3
        0x00000464:    4152        RA      ADCS     r2,r2,r2
        0x00000466:    0943        C.      LSRS     r3,r0,#5
        0x00000468:    428b        .B      CMP      r3,r1
        0x0000046a:    d301        ..      BCC      0x470 ; __aeabi_idiv + 64
        0x0000046c:    014b        K.      LSLS     r3,r1,#5
        0x0000046e:    1ac0        ..      SUBS     r0,r0,r3
        0x00000470:    4152        RA      ADCS     r2,r2,r2
        0x00000472:    0903        ..      LSRS     r3,r0,#4
        0x00000474:    428b        .B      CMP      r3,r1
        0x00000476:    d301        ..      BCC      0x47c ; __aeabi_idiv + 76
        0x00000478:    010b        ..      LSLS     r3,r1,#4
        0x0000047a:    1ac0        ..      SUBS     r0,r0,r3
        0x0000047c:    4152        RA      ADCS     r2,r2,r2
        0x0000047e:    08c3        ..      LSRS     r3,r0,#3
        0x00000480:    428b        .B      CMP      r3,r1
        0x00000482:    d301        ..      BCC      0x488 ; __aeabi_idiv + 88
        0x00000484:    00cb        ..      LSLS     r3,r1,#3
        0x00000486:    1ac0        ..      SUBS     r0,r0,r3
        0x00000488:    4152        RA      ADCS     r2,r2,r2
        0x0000048a:    0883        ..      LSRS     r3,r0,#2
        0x0000048c:    428b        .B      CMP      r3,r1
        0x0000048e:    d301        ..      BCC      0x494 ; __aeabi_idiv + 100
        0x00000490:    008b        ..      LSLS     r3,r1,#2
        0x00000492:    1ac0        ..      SUBS     r0,r0,r3
        0x00000494:    4152        RA      ADCS     r2,r2,r2
        0x00000496:    0843        C.      LSRS     r3,r0,#1
        0x00000498:    428b        .B      CMP      r3,r1
        0x0000049a:    d301        ..      BCC      0x4a0 ; __aeabi_idiv + 112
        0x0000049c:    004b        K.      LSLS     r3,r1,#1
        0x0000049e:    1ac0        ..      SUBS     r0,r0,r3
        0x000004a0:    4152        RA      ADCS     r2,r2,r2
        0x000004a2:    1a41        A.      SUBS     r1,r0,r1
        0x000004a4:    d200        ..      BCS      0x4a8 ; __aeabi_idiv + 120
        0x000004a6:    4601        .F      MOV      r1,r0
        0x000004a8:    4152        RA      ADCS     r2,r2,r2
        0x000004aa:    4610        .F      MOV      r0,r2
        0x000004ac:    4770        pG      BX       lr
        0x000004ae:    e05d        ].      B        0x56c ; __aeabi_idiv + 316
        0x000004b0:    0fca        ..      LSRS     r2,r1,#31
        0x000004b2:    d000        ..      BEQ      0x4b6 ; __aeabi_idiv + 134
        0x000004b4:    4249        IB      RSBS     r1,r1,#0
        0x000004b6:    1003        ..      ASRS     r3,r0,#32
        0x000004b8:    d300        ..      BCC      0x4bc ; __aeabi_idiv + 140
        0x000004ba:    4240        @B      RSBS     r0,r0,#0
        0x000004bc:    4053        S@      EORS     r3,r3,r2
        0x000004be:    2200        ."      MOVS     r2,#0
        0x000004c0:    469c        .F      MOV      r12,r3
        0x000004c2:    0903        ..      LSRS     r3,r0,#4
        0x000004c4:    428b        .B      CMP      r3,r1
        0x000004c6:    d32d        -.      BCC      0x524 ; __aeabi_idiv + 244
        0x000004c8:    0a03        ..      LSRS     r3,r0,#8
        0x000004ca:    428b        .B      CMP      r3,r1
        0x000004cc:    d312        ..      BCC      0x4f4 ; __aeabi_idiv + 196
        0x000004ce:    22fc        ."      MOVS     r2,#0xfc
        0x000004d0:    0189        ..      LSLS     r1,r1,#6
        0x000004d2:    ba12        ..      REV      r2,r2
        0x000004d4:    0a03        ..      LSRS     r3,r0,#8
        0x000004d6:    428b        .B      CMP      r3,r1
        0x000004d8:    d30c        ..      BCC      0x4f4 ; __aeabi_idiv + 196
        0x000004da:    0189        ..      LSLS     r1,r1,#6
        0x000004dc:    1192        ..      ASRS     r2,r2,#6
        0x000004de:    428b        .B      CMP      r3,r1
        0x000004e0:    d308        ..      BCC      0x4f4 ; __aeabi_idiv + 196
        0x000004e2:    0189        ..      LSLS     r1,r1,#6
        0x000004e4:    1192        ..      ASRS     r2,r2,#6
        0x000004e6:    428b        .B      CMP      r3,r1
        0x000004e8:    d304        ..      BCC      0x4f4 ; __aeabi_idiv + 196
        0x000004ea:    0189        ..      LSLS     r1,r1,#6
        0x000004ec:    d03a        :.      BEQ      0x564 ; __aeabi_idiv + 308
        0x000004ee:    1192        ..      ASRS     r2,r2,#6
        0x000004f0:    e000        ..      B        0x4f4 ; __aeabi_idiv + 196
        0x000004f2:    0989        ..      LSRS     r1,r1,#6
        0x000004f4:    09c3        ..      LSRS     r3,r0,#7
        0x000004f6:    428b        .B      CMP      r3,r1
        0x000004f8:    d301        ..      BCC      0x4fe ; __aeabi_idiv + 206
        0x000004fa:    01cb        ..      LSLS     r3,r1,#7
        0x000004fc:    1ac0        ..      SUBS     r0,r0,r3
        0x000004fe:    4152        RA      ADCS     r2,r2,r2
        0x00000500:    0983        ..      LSRS     r3,r0,#6
        0x00000502:    428b        .B      CMP      r3,r1
        0x00000504:    d301        ..      BCC      0x50a ; __aeabi_idiv + 218
        0x00000506:    018b        ..      LSLS     r3,r1,#6
        0x00000508:    1ac0        ..      SUBS     r0,r0,r3
        0x0000050a:    4152        RA      ADCS     r2,r2,r2
        0x0000050c:    0943        C.      LSRS     r3,r0,#5
        0x0000050e:    428b        .B      CMP      r3,r1
        0x00000510:    d301        ..      BCC      0x516 ; __aeabi_idiv + 230
        0x00000512:    014b        K.      LSLS     r3,r1,#5
        0x00000514:    1ac0        ..      SUBS     r0,r0,r3
        0x00000516:    4152        RA      ADCS     r2,r2,r2
        0x00000518:    0903        ..      LSRS     r3,r0,#4
        0x0000051a:    428b        .B      CMP      r3,r1
        0x0000051c:    d301        ..      BCC      0x522 ; __aeabi_idiv + 242
        0x0000051e:    010b        ..      LSLS     r3,r1,#4
        0x00000520:    1ac0        ..      SUBS     r0,r0,r3
        0x00000522:    4152        RA      ADCS     r2,r2,r2
        0x00000524:    08c3        ..      LSRS     r3,r0,#3
        0x00000526:    428b        .B      CMP      r3,r1
        0x00000528:    d301        ..      BCC      0x52e ; __aeabi_idiv + 254
        0x0000052a:    00cb        ..      LSLS     r3,r1,#3
        0x0000052c:    1ac0        ..      SUBS     r0,r0,r3
        0x0000052e:    4152        RA      ADCS     r2,r2,r2
        0x00000530:    0883        ..      LSRS     r3,r0,#2
        0x00000532:    428b        .B      CMP      r3,r1
        0x00000534:    d301        ..      BCC      0x53a ; __aeabi_idiv + 266
        0x00000536:    008b        ..      LSLS     r3,r1,#2
        0x00000538:    1ac0        ..      SUBS     r0,r0,r3
        0x0000053a:    4152        RA      ADCS     r2,r2,r2
        0x0000053c:    d2d9        ..      BCS      0x4f2 ; __aeabi_idiv + 194
        0x0000053e:    0843        C.      LSRS     r3,r0,#1
        0x00000540:    428b        .B      CMP      r3,r1
        0x00000542:    d301        ..      BCC      0x548 ; __aeabi_idiv + 280
        0x00000544:    004b        K.      LSLS     r3,r1,#1
        0x00000546:    1ac0        ..      SUBS     r0,r0,r3
        0x00000548:    4152        RA      ADCS     r2,r2,r2
        0x0000054a:    1a41        A.      SUBS     r1,r0,r1
        0x0000054c:    d200        ..      BCS      0x550 ; __aeabi_idiv + 288
        0x0000054e:    4601        .F      MOV      r1,r0
        0x00000550:    4663        cF      MOV      r3,r12
        0x00000552:    4152        RA      ADCS     r2,r2,r2
        0x00000554:    105b        [.      ASRS     r3,r3,#1
        0x00000556:    4610        .F      MOV      r0,r2
        0x00000558:    d301        ..      BCC      0x55e ; __aeabi_idiv + 302
        0x0000055a:    4240        @B      RSBS     r0,r0,#0
        0x0000055c:    2b00        .+      CMP      r3,#0
        0x0000055e:    d500        ..      BPL      0x562 ; __aeabi_idiv + 306
        0x00000560:    4249        IB      RSBS     r1,r1,#0
        0x00000562:    4770        pG      BX       lr
        0x00000564:    4663        cF      MOV      r3,r12
        0x00000566:    105b        [.      ASRS     r3,r3,#1
        0x00000568:    d300        ..      BCC      0x56c ; __aeabi_idiv + 316
        0x0000056a:    4240        @B      RSBS     r0,r0,#0
        0x0000056c:    b501        ..      PUSH     {r0,lr}
        0x0000056e:    2000        .       MOVS     r0,#0
        0x00000570:    46c0        .F      MOV      r8,r8
        0x00000572:    46c0        .F      MOV      r8,r8
        0x00000574:    bd02        ..      POP      {r1,pc}
    .text
    __use_two_region_memory
        0x00000576:    4770        pG      BX       lr
    __rt_heap_escrow$2region
        0x00000578:    4770        pG      BX       lr
    __rt_heap_expand$2region
        0x0000057a:    4770        pG      BX       lr
    .text
    _printf_int_common
        0x0000057c:    b5ff        ..      PUSH     {r0-r7,lr}
        0x0000057e:    4604        .F      MOV      r4,r0
        0x00000580:    460d        .F      MOV      r5,r1
        0x00000582:    b081        ..      SUB      sp,sp,#4
        0x00000584:    3024        $0      ADDS     r0,r0,#0x24
        0x00000586:    9000        ..      STR      r0,[sp,#0]
        0x00000588:    6821        !h      LDR      r1,[r4,#0]
        0x0000058a:    0688        ..      LSLS     r0,r1,#26
        0x0000058c:    d504        ..      BPL      0x598 ; _printf_int_common + 28
        0x0000058e:    2210        ."      MOVS     r2,#0x10
        0x00000590:    69e0        .i      LDR      r0,[r4,#0x1c]
        0x00000592:    4391        .C      BICS     r1,r1,r2
        0x00000594:    6021        !`      STR      r1,[r4,#0]
        0x00000596:    e000        ..      B        0x59a ; _printf_int_common + 30
        0x00000598:    2001        .       MOVS     r0,#1
        0x0000059a:    42a8        .B      CMP      r0,r5
        0x0000059c:    dd01        ..      BLE      0x5a2 ; _printf_int_common + 38
        0x0000059e:    1b47        G.      SUBS     r7,r0,r5
        0x000005a0:    e000        ..      B        0x5a4 ; _printf_int_common + 40
        0x000005a2:    2700        .'      MOVS     r7,#0
        0x000005a4:    9804        ..      LDR      r0,[sp,#0x10]
        0x000005a6:    69a1        .i      LDR      r1,[r4,#0x18]
        0x000005a8:    197a        z.      ADDS     r2,r7,r5
        0x000005aa:    1810        ..      ADDS     r0,r2,r0
        0x000005ac:    1a08        ..      SUBS     r0,r1,r0
        0x000005ae:    61a0        .a      STR      r0,[r4,#0x18]
        0x000005b0:    7820         x      LDRB     r0,[r4,#0]
        0x000005b2:    06c0        ..      LSLS     r0,r0,#27
        0x000005b4:    d402        ..      BMI      0x5bc ; _printf_int_common + 64
        0x000005b6:    4620         F      MOV      r0,r4
        0x000005b8:    46c0        .F      MOV      r8,r8
        0x000005ba:    46c0        .F      MOV      r8,r8
        0x000005bc:    2600        .&      MOVS     r6,#0
        0x000005be:    e008        ..      B        0x5d2 ; _printf_int_common + 86
        0x000005c0:    9803        ..      LDR      r0,[sp,#0xc]
        0x000005c2:    6862        bh      LDR      r2,[r4,#4]
        0x000005c4:    68a1        .h      LDR      r1,[r4,#8]
        0x000005c6:    5d80        .]      LDRB     r0,[r0,r6]
        0x000005c8:    4790        .G      BLX      r2
        0x000005ca:    6a20         j      LDR      r0,[r4,#0x20]
        0x000005cc:    1c40        @.      ADDS     r0,r0,#1
        0x000005ce:    1c76        v.      ADDS     r6,r6,#1
        0x000005d0:    6220         b      STR      r0,[r4,#0x20]
        0x000005d2:    9804        ..      LDR      r0,[sp,#0x10]
        0x000005d4:    4286        .B      CMP      r6,r0
        0x000005d6:    dbf3        ..      BLT      0x5c0 ; _printf_int_common + 68
        0x000005d8:    7820         x      LDRB     r0,[r4,#0]
        0x000005da:    06c0        ..      LSLS     r0,r0,#27
        0x000005dc:    d50a        ..      BPL      0x5f4 ; _printf_int_common + 120
        0x000005de:    4620         F      MOV      r0,r4
        0x000005e0:    46c0        .F      MOV      r8,r8
        0x000005e2:    46c0        .F      MOV      r8,r8
        0x000005e4:    e006        ..      B        0x5f4 ; _printf_int_common + 120
        0x000005e6:    6862        bh      LDR      r2,[r4,#4]
        0x000005e8:    68a1        .h      LDR      r1,[r4,#8]
        0x000005ea:    2030        0       MOVS     r0,#0x30
        0x000005ec:    4790        .G      BLX      r2
        0x000005ee:    6a20         j      LDR      r0,[r4,#0x20]
        0x000005f0:    1c40        @.      ADDS     r0,r0,#1
        0x000005f2:    6220         b      STR      r0,[r4,#0x20]
        0x000005f4:    4638        8F      MOV      r0,r7
        0x000005f6:    1e7f        ..      SUBS     r7,r7,#1
        0x000005f8:    2800        .(      CMP      r0,#0
        0x000005fa:    dcf4        ..      BGT      0x5e6 ; _printf_int_common + 106
        0x000005fc:    e007        ..      B        0x60e ; _printf_int_common + 146
        0x000005fe:    9800        ..      LDR      r0,[sp,#0]
        0x00000600:    6862        bh      LDR      r2,[r4,#4]
        0x00000602:    68a1        .h      LDR      r1,[r4,#8]
        0x00000604:    5d40        @]      LDRB     r0,[r0,r5]
        0x00000606:    4790        .G      BLX      r2
        0x00000608:    6a20         j      LDR      r0,[r4,#0x20]
        0x0000060a:    1c40        @.      ADDS     r0,r0,#1
        0x0000060c:    6220         b      STR      r0,[r4,#0x20]
        0x0000060e:    4628        (F      MOV      r0,r5
        0x00000610:    1e6d        m.      SUBS     r5,r5,#1
        0x00000612:    2800        .(      CMP      r0,#0
        0x00000614:    dcf3        ..      BGT      0x5fe ; _printf_int_common + 130
        0x00000616:    4620         F      MOV      r0,r4
        0x00000618:    46c0        .F      MOV      r8,r8
        0x0000061a:    46c0        .F      MOV      r8,r8
        0x0000061c:    7820         x      LDRB     r0,[r4,#0]
        0x0000061e:    0600        ..      LSLS     r0,r0,#24
        0x00000620:    d502        ..      BPL      0x628 ; _printf_int_common + 172
        0x00000622:    2002        .       MOVS     r0,#2
        0x00000624:    b005        ..      ADD      sp,sp,#0x14
        0x00000626:    bdf0        ..      POP      {r4-r7,pc}
        0x00000628:    2001        .       MOVS     r0,#1
        0x0000062a:    e7fb        ..      B        0x624 ; _printf_int_common + 168
    .text
    _printf_char_file
        0x0000062c:    4b08        .K      LDR      r3,[pc,#32] ; [0x650] = 0x1583
        0x0000062e:    b570        p.      PUSH     {r4-r6,lr}
        0x00000630:    460d        .F      MOV      r5,r1
        0x00000632:    447b        {D      ADD      r3,r3,pc
        0x00000634:    f000f827    ..'.    BL       _printf_char_common ; 0x686
        0x00000638:    4604        .F      MOV      r4,r0
        0x0000063a:    4628        (F      MOV      r0,r5
        0x0000063c:    f000f836    ..6.    BL       ferror ; 0x6ac
        0x00000640:    2800        .(      CMP      r0,#0
        0x00000642:    d002        ..      BEQ      0x64a ; _printf_char_file + 30
        0x00000644:    2000        .       MOVS     r0,#0
        0x00000646:    43c0        .C      MVNS     r0,r0
        0x00000648:    bd70        p.      POP      {r4-r6,pc}
        0x0000064a:    4620         F      MOV      r0,r4
        0x0000064c:    bd70        p.      POP      {r4-r6,pc}
    $d
        0x0000064e:    0000        ..      DCW    0
        0x00000650:    00001583    ....    DCD    5507
    $t
    .text
    __rt_udiv10
        0x00000654:    4601        .F      MOV      r1,r0
        0x00000656:    0880        ..      LSRS     r0,r0,#2
        0x00000658:    1a08        ..      SUBS     r0,r1,r0
        0x0000065a:    0902        ..      LSRS     r2,r0,#4
        0x0000065c:    1810        ..      ADDS     r0,r2,r0
        0x0000065e:    0a02        ..      LSRS     r2,r0,#8
        0x00000660:    1810        ..      ADDS     r0,r2,r0
        0x00000662:    0c02        ..      LSRS     r2,r0,#16
        0x00000664:    1810        ..      ADDS     r0,r2,r0
        0x00000666:    08c0        ..      LSRS     r0,r0,#3
        0x00000668:    0082        ..      LSLS     r2,r0,#2
        0x0000066a:    1812        ..      ADDS     r2,r2,r0
        0x0000066c:    0052        R.      LSLS     r2,r2,#1
        0x0000066e:    1a89        ..      SUBS     r1,r1,r2
        0x00000670:    e001        ..      B        0x676 ; __rt_udiv10 + 34
        0x00000672:    1c40        @.      ADDS     r0,r0,#1
        0x00000674:    390a        .9      SUBS     r1,r1,#0xa
        0x00000676:    290a        .)      CMP      r1,#0xa
        0x00000678:    d2fb        ..      BCS      0x672 ; __rt_udiv10 + 30
        0x0000067a:    4770        pG      BX       lr
    .text
    _printf_input_char
        0x0000067c:    6901        .i      LDR      r1,[r0,#0x10]
        0x0000067e:    1c4a        J.      ADDS     r2,r1,#1
        0x00000680:    6102        .a      STR      r2,[r0,#0x10]
        0x00000682:    7808        .x      LDRB     r0,[r1,#0]
        0x00000684:    4770        pG      BX       lr
    _printf_char_common
        0x00000686:    b500        ..      PUSH     {lr}
        0x00000688:    b08f        ..      SUB      sp,sp,#0x3c
        0x0000068a:    9102        ..      STR      r1,[sp,#8]
        0x0000068c:    2100        .!      MOVS     r1,#0
        0x0000068e:    9105        ..      STR      r1,[sp,#0x14]
        0x00000690:    4905        .I      LDR      r1,[pc,#20] ; [0x6a8] = 0xffffffe5
        0x00000692:    9301        ..      STR      r3,[sp,#4]
        0x00000694:    4479        yD      ADD      r1,r1,pc
        0x00000696:    9103        ..      STR      r1,[sp,#0xc]
        0x00000698:    4611        .F      MOV      r1,r2
        0x0000069a:    9004        ..      STR      r0,[sp,#0x10]
        0x0000069c:    4668        hF      MOV      r0,sp
        0x0000069e:    f7fffe0d    ....    BL       __printf ; 0x2bc
        0x000006a2:    b00f        ..      ADD      sp,sp,#0x3c
        0x000006a4:    bd00        ..      POP      {pc}
    $d
        0x000006a6:    0000        ..      DCW    0
        0x000006a8:    ffffffe5    ....    DCD    4294967269
    $t
    .text
    ferror
        0x000006ac:    68c0        .h      LDR      r0,[r0,#0xc]
        0x000006ae:    2180        .!      MOVS     r1,#0x80
        0x000006b0:    4008        .@      ANDS     r0,r0,r1
        0x000006b2:    4770        pG      BX       lr
    .text
    __user_setup_stackheap
        0x000006b4:    4675        uF      MOV      r5,lr
        0x000006b6:    f000f825    ..%.    BL       __user_libspace ; 0x704
        0x000006ba:    46ae        .F      MOV      lr,r5
        0x000006bc:    0005        ..      MOVS     r5,r0
        0x000006be:    4669        iF      MOV      r1,sp
        0x000006c0:    4653        SF      MOV      r3,r10
        0x000006c2:    08c0        ..      LSRS     r0,r0,#3
        0x000006c4:    00c0        ..      LSLS     r0,r0,#3
        0x000006c6:    4685        .F      MOV      sp,r0
        0x000006c8:    b018        ..      ADD      sp,sp,#0x60
        0x000006ca:    b520         .      PUSH     {r5,lr}
        0x000006cc:    f7fffd6a    ..j.    BL       __user_initial_stackheap ; 0x1a4
        0x000006d0:    bc60        `.      POP      {r5,r6}
        0x000006d2:    2700        .'      MOVS     r7,#0
        0x000006d4:    0849        I.      LSRS     r1,r1,#1
        0x000006d6:    46b6        .F      MOV      lr,r6
        0x000006d8:    2600        .&      MOVS     r6,#0
        0x000006da:    c5c0        ..      STM      r5!,{r6,r7}
        0x000006dc:    c5c0        ..      STM      r5!,{r6,r7}
        0x000006de:    c5c0        ..      STM      r5!,{r6,r7}
        0x000006e0:    c5c0        ..      STM      r5!,{r6,r7}
        0x000006e2:    c5c0        ..      STM      r5!,{r6,r7}
        0x000006e4:    c5c0        ..      STM      r5!,{r6,r7}
        0x000006e6:    c5c0        ..      STM      r5!,{r6,r7}
        0x000006e8:    c5c0        ..      STM      r5!,{r6,r7}
        0x000006ea:    3d40        @=      SUBS     r5,r5,#0x40
        0x000006ec:    0049        I.      LSLS     r1,r1,#1
        0x000006ee:    468d        .F      MOV      sp,r1
        0x000006f0:    4770        pG      BX       lr
    .text
    exit
        0x000006f2:    b510        ..      PUSH     {r4,lr}
        0x000006f4:    4604        .F      MOV      r4,r0
        0x000006f6:    46c0        .F      MOV      r8,r8
        0x000006f8:    46c0        .F      MOV      r8,r8
        0x000006fa:    4620         F      MOV      r0,r4
        0x000006fc:    f7fffd2a    ..*.    BL       __rt_exit ; 0x154
        0x00000700:    bd10        ..      POP      {r4,pc}
        0x00000702:    0000        ..      MOVS     r0,r0
    .text
    __user_libspace
    __user_perproc_libspace
    __user_perthread_libspace
        0x00000704:    4800        .H      LDR      r0,[pc,#0] ; [0x708] = 0x20001ac4
        0x00000706:    4770        pG      BX       lr
    $d
        0x00000708:    20001ac4    ...     DCD    536877764
    $t
    .text
    _sys_exit
        0x0000070c:    4901        .I      LDR      r1,[pc,#4] ; [0x714] = 0x20026
        0x0000070e:    2018        .       MOVS     r0,#0x18
        0x00000710:    beab        ..      BKPT     #0xab
        0x00000712:    e7fe        ..      B        0x712 ; _sys_exit + 6
    $d
        0x00000714:    00020026    &...    DCD    131110
    $t
    .text
    __I$use$semihosting
    __use_no_semihosting_swi
        0x00000718:    4770        pG      BX       lr
    .text
    .text
    __decompress
    __decompress2
    __semihosting_library_function
        0x0000071a:    b570        p.      PUSH     {r4-r6,lr}
        0x0000071c:    188d        ..      ADDS     r5,r1,r2
        0x0000071e:    7804        .x      LDRB     r4,[r0,#0]
        0x00000720:    1c40        @.      ADDS     r0,r0,#1
        0x00000722:    07a2        ..      LSLS     r2,r4,#30
        0x00000724:    0f92        ..      LSRS     r2,r2,#30
        0x00000726:    d101        ..      BNE      0x72c ; __decompress + 18
        0x00000728:    7802        .x      LDRB     r2,[r0,#0]
        0x0000072a:    1c40        @.      ADDS     r0,r0,#1
        0x0000072c:    1123        #.      ASRS     r3,r4,#4
        0x0000072e:    d106        ..      BNE      0x73e ; __decompress + 36
        0x00000730:    7803        .x      LDRB     r3,[r0,#0]
        0x00000732:    1c40        @.      ADDS     r0,r0,#1
        0x00000734:    e003        ..      B        0x73e ; __decompress + 36
        0x00000736:    7806        .x      LDRB     r6,[r0,#0]
        0x00000738:    1c40        @.      ADDS     r0,r0,#1
        0x0000073a:    700e        .p      STRB     r6,[r1,#0]
        0x0000073c:    1c49        I.      ADDS     r1,r1,#1
        0x0000073e:    1e52        R.      SUBS     r2,r2,#1
        0x00000740:    d1f9        ..      BNE      0x736 ; __decompress + 28
        0x00000742:    2b00        .+      CMP      r3,#0
        0x00000744:    d015        ..      BEQ      0x772 ; __decompress + 88
        0x00000746:    7802        .x      LDRB     r2,[r0,#0]
        0x00000748:    260c        .&      MOVS     r6,#0xc
        0x0000074a:    4034        4@      ANDS     r4,r4,r6
        0x0000074c:    1a8a        ..      SUBS     r2,r1,r2
        0x0000074e:    1c40        @.      ADDS     r0,r0,#1
        0x00000750:    2c0c        .,      CMP      r4,#0xc
        0x00000752:    d003        ..      BEQ      0x75c ; __decompress + 66
        0x00000754:    01a4        ..      LSLS     r4,r4,#6
        0x00000756:    1b12        ..      SUBS     r2,r2,r4
        0x00000758:    1c9b        ..      ADDS     r3,r3,#2
        0x0000075a:    e008        ..      B        0x76e ; __decompress + 84
        0x0000075c:    7804        .x      LDRB     r4,[r0,#0]
        0x0000075e:    0224        $.      LSLS     r4,r4,#8
        0x00000760:    1b12        ..      SUBS     r2,r2,r4
        0x00000762:    1c40        @.      ADDS     r0,r0,#1
        0x00000764:    e7f8        ..      B        0x758 ; __decompress + 62
        0x00000766:    7814        .x      LDRB     r4,[r2,#0]
        0x00000768:    700c        .p      STRB     r4,[r1,#0]
        0x0000076a:    1c49        I.      ADDS     r1,r1,#1
        0x0000076c:    1c52        R.      ADDS     r2,r2,#1
        0x0000076e:    1e5b        [.      SUBS     r3,r3,#1
        0x00000770:    d5f9        ..      BPL      0x766 ; __decompress + 76
        0x00000772:    42a9        .B      CMP      r1,r5
        0x00000774:    d3d3        ..      BCC      0x71e ; __decompress + 4
        0x00000776:    2000        .       MOVS     r0,#0
        0x00000778:    bd70        p.      POP      {r4-r6,pc}
        0x0000077a:    0000        ..      MOVS     r0,r0
    i.BlockErase
    BlockErase
        0x0000077c:    b510        ..      PUSH     {r4,lr}
        0x0000077e:    a018        ..      ADR      r0,{pc}+0x62 ; 0x7e0
        0x00000780:    f7fffd2c    ..,.    BL       __2printf ; 0x1dc
        0x00000784:    2180        .!      MOVS     r1,#0x80
        0x00000786:    20ff        .       MOVS     r0,#0xff
        0x00000788:    f000fb93    ....    BL       LT_WriteI2C_Byte ; 0xeb2
        0x0000078c:    2101        .!      MOVS     r1,#1
        0x0000078e:    20ee        .       MOVS     r0,#0xee
        0x00000790:    f000fb8f    ....    BL       LT_WriteI2C_Byte ; 0xeb2
        0x00000794:    2182        .!      MOVS     r1,#0x82
        0x00000796:    205a        Z       MOVS     r0,#0x5a
        0x00000798:    f000fb8b    ....    BL       LT_WriteI2C_Byte ; 0xeb2
        0x0000079c:    2186        .!      MOVS     r1,#0x86
        0x0000079e:    205a        Z       MOVS     r0,#0x5a
        0x000007a0:    f000fb87    ....    BL       LT_WriteI2C_Byte ; 0xeb2
        0x000007a4:    2182        .!      MOVS     r1,#0x82
        0x000007a6:    205a        Z       MOVS     r0,#0x5a
        0x000007a8:    f000fb83    ....    BL       LT_WriteI2C_Byte ; 0xeb2
        0x000007ac:    2100        .!      MOVS     r1,#0
        0x000007ae:    205b        [       MOVS     r0,#0x5b
        0x000007b0:    f000fb7f    ....    BL       LT_WriteI2C_Byte ; 0xeb2
        0x000007b4:    2100        .!      MOVS     r1,#0
        0x000007b6:    205c        \       MOVS     r0,#0x5c
        0x000007b8:    f000fb7b    ..{.    BL       LT_WriteI2C_Byte ; 0xeb2
        0x000007bc:    2100        .!      MOVS     r1,#0
        0x000007be:    205d        ]       MOVS     r0,#0x5d
        0x000007c0:    f000fb77    ..w.    BL       LT_WriteI2C_Byte ; 0xeb2
        0x000007c4:    2183        .!      MOVS     r1,#0x83
        0x000007c6:    205a        Z       MOVS     r0,#0x5a
        0x000007c8:    f000fb73    ..s.    BL       LT_WriteI2C_Byte ; 0xeb2
        0x000007cc:    2182        .!      MOVS     r1,#0x82
        0x000007ce:    205a        Z       MOVS     r0,#0x5a
        0x000007d0:    f000fb6f    ..o.    BL       LT_WriteI2C_Byte ; 0xeb2
        0x000007d4:    207d        }       MOVS     r0,#0x7d
        0x000007d6:    00c0        ..      LSLS     r0,r0,#3
        0x000007d8:    f001f9e1    ....    BL       delay_ms ; 0x1b9e
        0x000007dc:    bd10        ..      POP      {r4,pc}
    $d
        0x000007de:    0000        ..      DCW    0
        0x000007e0:    636f6c42    Bloc    DCD    1668246594
        0x000007e4:    6172456b    kEra    DCD    1634878827
        0x000007e8:    0a206573    se .    DCD    169895283
        0x000007ec:    00000000    ....    DCD    0
    $t
    i.CLK_EnableModuleClock
    CLK_EnableModuleClock
        0x000007f0:    0fc1        ..      LSRS     r1,r0,#31
        0x000007f2:    0089        ..      LSLS     r1,r1,#2
        0x000007f4:    4a06        .J      LDR      r2,[pc,#24] ; [0x810] = 0x50000200
        0x000007f6:    1889        ..      ADDS     r1,r1,r2
        0x000007f8:    6849        Ih      LDR      r1,[r1,#4]
        0x000007fa:    06c3        ..      LSLS     r3,r0,#27
        0x000007fc:    0edb        ..      LSRS     r3,r3,#27
        0x000007fe:    2201        ."      MOVS     r2,#1
        0x00000800:    409a        .@      LSLS     r2,r2,r3
        0x00000802:    4311        .C      ORRS     r1,r1,r2
        0x00000804:    0fc2        ..      LSRS     r2,r0,#31
        0x00000806:    0092        ..      LSLS     r2,r2,#2
        0x00000808:    4b01        .K      LDR      r3,[pc,#4] ; [0x810] = 0x50000200
        0x0000080a:    18d2        ..      ADDS     r2,r2,r3
        0x0000080c:    6051        Q`      STR      r1,[r2,#4]
        0x0000080e:    4770        pG      BX       lr
    $d
        0x00000810:    50000200    ...P    DCD    1342177792
    $t
    i.CLK_EnablePLL
    CLK_EnablePLL
        0x00000814:    b5f3        ..      PUSH     {r0,r1,r4-r7,lr}
        0x00000816:    b087        ..      SUB      sp,sp,#0x1c
        0x00000818:    460f        .F      MOV      r7,r1
        0x0000081a:    4830        0H      LDR      r0,[pc,#192] ; [0x8dc] = 0x208c
        0x0000081c:    4601        .F      MOV      r1,r0
        0x0000081e:    c90e        ..      LDM      r1,{r1-r3}
        0x00000820:    68c0        .h      LDR      r0,[r0,#0xc]
        0x00000822:    ac01        ..      ADD      r4,sp,#4
        0x00000824:    c40e        ..      STM      r4!,{r1-r3}
        0x00000826:    9004        ..      STR      r0,[sp,#0x10]
        0x00000828:    482d        -H      LDR      r0,[pc,#180] ; [0x8e0] = 0x2dc6c00
        0x0000082a:    4287        .B      CMP      r7,r0
        0x0000082c:    d201        ..      BCS      0x832 ; CLK_EnablePLL + 30
        0x0000082e:    4607        .F      MOV      r7,r0
        0x00000830:    e003        ..      B        0x83a ; CLK_EnablePLL + 38
        0x00000832:    482c        ,H      LDR      r0,[pc,#176] ; [0x8e4] = 0x7270e00
        0x00000834:    4287        .B      CMP      r7,r0
        0x00000836:    d900        ..      BLS      0x83a ; CLK_EnablePLL + 38
        0x00000838:    4607        .F      MOV      r7,r0
        0x0000083a:    2101        .!      MOVS     r1,#1
        0x0000083c:    0449        I.      LSLS     r1,r1,#17
        0x0000083e:    9807        ..      LDR      r0,[sp,#0x1c]
        0x00000840:    4288        .B      CMP      r0,r1
        0x00000842:    d004        ..      BEQ      0x84e ; CLK_EnablePLL + 58
        0x00000844:    2000        .       MOVS     r0,#0
        0x00000846:    9005        ..      STR      r0,[sp,#0x14]
        0x00000848:    4827        'H      LDR      r0,[pc,#156] ; [0x8e8] = 0xb71b00
        0x0000084a:    9006        ..      STR      r0,[sp,#0x18]
        0x0000084c:    e004        ..      B        0x858 ; CLK_EnablePLL + 68
        0x0000084e:    2001        .       MOVS     r0,#1
        0x00000850:    0440        @.      LSLS     r0,r0,#17
        0x00000852:    9005        ..      STR      r0,[sp,#0x14]
        0x00000854:    4824        $H      LDR      r0,[pc,#144] ; [0x8e8] = 0xb71b00
        0x00000856:    9006        ..      STR      r0,[sp,#0x18]
        0x00000858:    4924        $I      LDR      r1,[pc,#144] ; [0x8ec] = 0xf4240
        0x0000085a:    4638        8F      MOV      r0,r7
        0x0000085c:    f7fffdde    ....    BL       __aeabi_uidiv ; 0x41c
        0x00000860:    4605        .F      MOV      r5,r0
        0x00000862:    4922        "I      LDR      r1,[pc,#136] ; [0x8ec] = 0xf4240
        0x00000864:    9806        ..      LDR      r0,[sp,#0x18]
        0x00000866:    f7fffdd9    ....    BL       __aeabi_uidiv ; 0x41c
        0x0000086a:    4604        .F      MOV      r4,r0
        0x0000086c:    210c        .!      MOVS     r1,#0xc
        0x0000086e:    9806        ..      LDR      r0,[sp,#0x18]
        0x00000870:    f7fffdd4    ....    BL       __aeabi_uidiv ; 0x41c
        0x00000874:    2900        .)      CMP      r1,#0
        0x00000876:    d109        ..      BNE      0x88c ; CLK_EnablePLL + 120
        0x00000878:    2103        .!      MOVS     r1,#3
        0x0000087a:    4628        (F      MOV      r0,r5
        0x0000087c:    f7fffdce    ....    BL       __aeabi_uidiv ; 0x41c
        0x00000880:    0085        ..      LSLS     r5,r0,#2
        0x00000882:    2103        .!      MOVS     r1,#3
        0x00000884:    4620         F      MOV      r0,r4
        0x00000886:    f7fffdc9    ....    BL       __aeabi_uidiv ; 0x41c
        0x0000088a:    0084        ..      LSLS     r4,r0,#2
        0x0000088c:    e001        ..      B        0x892 ; CLK_EnablePLL + 126
        0x0000088e:    0864        d.      LSRS     r4,r4,#1
        0x00000890:    086d        m.      LSRS     r5,r5,#1
        0x00000892:    2c10        .,      CMP      r4,#0x10
        0x00000894:    d8fb        ..      BHI      0x88e ; CLK_EnablePLL + 122
        0x00000896:    2d5f        _-      CMP      r5,#0x5f
        0x00000898:    d8f9        ..      BHI      0x88e ; CLK_EnablePLL + 122
        0x0000089a:    2603        .&      MOVS     r6,#3
        0x0000089c:    e006        ..      B        0x8ac ; CLK_EnablePLL + 152
        0x0000089e:    00b0        ..      LSLS     r0,r6,#2
        0x000008a0:    a901        ..      ADD      r1,sp,#4
        0x000008a2:    5808        .X      LDR      r0,[r1,r0]
        0x000008a4:    42a0        .B      CMP      r0,r4
        0x000008a6:    d100        ..      BNE      0x8aa ; CLK_EnablePLL + 150
        0x000008a8:    e002        ..      B        0x8b0 ; CLK_EnablePLL + 156
        0x000008aa:    1e76        v.      SUBS     r6,r6,#1
        0x000008ac:    2e00        ..      CMP      r6,#0
        0x000008ae:    daf6        ..      BGE      0x89e ; CLK_EnablePLL + 138
        0x000008b0:    bf00        ..      NOP      
        0x000008b2:    0230        0.      LSLS     r0,r6,#8
        0x000008b4:    9905        ..      LDR      r1,[sp,#0x14]
        0x000008b6:    4308        .C      ORRS     r0,r0,r1
        0x000008b8:    4629        )F      MOV      r1,r5
        0x000008ba:    3920         9      SUBS     r1,r1,#0x20
        0x000008bc:    4308        .C      ORRS     r0,r0,r1
        0x000008be:    490c        .I      LDR      r1,[pc,#48] ; [0x8f0] = 0x50000200
        0x000008c0:    6248        Hb      STR      r0,[r1,#0x24]
        0x000008c2:    4608        .F      MOV      r0,r1
        0x000008c4:    6a40        @j      LDR      r0,[r0,#0x24]
        0x000008c6:    01c9        ..      LSLS     r1,r1,#7
        0x000008c8:    4388        .C      BICS     r0,r0,r1
        0x000008ca:    4909        .I      LDR      r1,[pc,#36] ; [0x8f0] = 0x50000200
        0x000008cc:    6248        Hb      STR      r0,[r1,#0x24]
        0x000008ce:    2004        .       MOVS     r0,#4
        0x000008d0:    f000f94e    ..N.    BL       CLK_WaitClockReady ; 0xb70
        0x000008d4:    f000f83c    ..<.    BL       CLK_GetPLLClockFreq ; 0x950
        0x000008d8:    b009        ..      ADD      sp,sp,#0x24
        0x000008da:    bdf0        ..      POP      {r4-r7,pc}
    $d
        0x000008dc:    0000208c    . ..    DCD    8332
        0x000008e0:    02dc6c00    .l..    DCD    48000000
        0x000008e4:    07270e00    ..'.    DCD    120000000
        0x000008e8:    00b71b00    ....    DCD    12000000
        0x000008ec:    000f4240    @B..    DCD    1000000
        0x000008f0:    50000200    ...P    DCD    1342177792
    $t
    i.CLK_EnableXtalRC
    CLK_EnableXtalRC
        0x000008f4:    b510        ..      PUSH     {r4,lr}
        0x000008f6:    4604        .F      MOV      r4,r0
        0x000008f8:    4810        .H      LDR      r0,[pc,#64] ; [0x93c] = 0x50000200
        0x000008fa:    6800        .h      LDR      r0,[r0,#0]
        0x000008fc:    4320         C      ORRS     r0,r0,r4
        0x000008fe:    490f        .I      LDR      r1,[pc,#60] ; [0x93c] = 0x50000200
        0x00000900:    6008        .`      STR      r0,[r1,#0]
        0x00000902:    07e0        ..      LSLS     r0,r4,#31
        0x00000904:    0fc0        ..      LSRS     r0,r0,#31
        0x00000906:    2800        .(      CMP      r0,#0
        0x00000908:    d002        ..      BEQ      0x910 ; CLK_EnableXtalRC + 28
        0x0000090a:    2001        .       MOVS     r0,#1
        0x0000090c:    f000f930    ..0.    BL       CLK_WaitClockReady ; 0xb70
        0x00000910:    2002        .       MOVS     r0,#2
        0x00000912:    4020         @      ANDS     r0,r0,r4
        0x00000914:    2800        .(      CMP      r0,#0
        0x00000916:    d002        ..      BEQ      0x91e ; CLK_EnableXtalRC + 42
        0x00000918:    2002        .       MOVS     r0,#2
        0x0000091a:    f000f929    ..).    BL       CLK_WaitClockReady ; 0xb70
        0x0000091e:    2004        .       MOVS     r0,#4
        0x00000920:    4020         @      ANDS     r0,r0,r4
        0x00000922:    2800        .(      CMP      r0,#0
        0x00000924:    d002        ..      BEQ      0x92c ; CLK_EnableXtalRC + 56
        0x00000926:    2010        .       MOVS     r0,#0x10
        0x00000928:    f000f922    ..".    BL       CLK_WaitClockReady ; 0xb70
        0x0000092c:    2008        .       MOVS     r0,#8
        0x0000092e:    4020         @      ANDS     r0,r0,r4
        0x00000930:    2800        .(      CMP      r0,#0
        0x00000932:    d002        ..      BEQ      0x93a ; CLK_EnableXtalRC + 70
        0x00000934:    2008        .       MOVS     r0,#8
        0x00000936:    f000f91b    ....    BL       CLK_WaitClockReady ; 0xb70
        0x0000093a:    bd10        ..      POP      {r4,pc}
    $d
        0x0000093c:    50000200    ...P    DCD    1342177792
    $t
    i.CLK_GetHCLKFreq
    CLK_GetHCLKFreq
        0x00000940:    b510        ..      PUSH     {r4,lr}
        0x00000942:    f000fe91    ....    BL       SystemCoreClockUpdate ; 0x1668
        0x00000946:    4801        .H      LDR      r0,[pc,#4] ; [0x94c] = 0x20000000
        0x00000948:    6800        .h      LDR      r0,[r0,#0]
        0x0000094a:    bd10        ..      POP      {r4,pc}
    $d
        0x0000094c:    20000000    ...     DCD    536870912
    $t
    i.CLK_GetPLLClockFreq
    CLK_GetPLLClockFreq
        0x00000950:    b5fe        ..      PUSH     {r1-r7,lr}
        0x00000952:    2000        .       MOVS     r0,#0
        0x00000954:    9002        ..      STR      r0,[sp,#8]
        0x00000956:    481c        .H      LDR      r0,[pc,#112] ; [0x9c8] = 0x50000200
        0x00000958:    6a45        Ej      LDR      r5,[r0,#0x24]
        0x0000095a:    01c0        ..      LSLS     r0,r0,#7
        0x0000095c:    4028        (@      ANDS     r0,r0,r5
        0x0000095e:    2800        .(      CMP      r0,#0
        0x00000960:    d001        ..      BEQ      0x966 ; CLK_GetPLLClockFreq + 22
        0x00000962:    2000        .       MOVS     r0,#0
        0x00000964:    bdfe        ..      POP      {r1-r7,pc}
        0x00000966:    2001        .       MOVS     r0,#1
        0x00000968:    0440        @.      LSLS     r0,r0,#17
        0x0000096a:    4028        (@      ANDS     r0,r0,r5
        0x0000096c:    2800        .(      CMP      r0,#0
        0x0000096e:    d001        ..      BEQ      0x974 ; CLK_GetPLLClockFreq + 36
        0x00000970:    4f16        .O      LDR      r7,[pc,#88] ; [0x9cc] = 0xb71b00
        0x00000972:    e000        ..      B        0x976 ; CLK_GetPLLClockFreq + 38
        0x00000974:    4f15        .O      LDR      r7,[pc,#84] ; [0x9cc] = 0xb71b00
        0x00000976:    2001        .       MOVS     r0,#1
        0x00000978:    0300        ..      LSLS     r0,r0,#12
        0x0000097a:    4028        (@      ANDS     r0,r0,r5
        0x0000097c:    2800        .(      CMP      r0,#0
        0x0000097e:    d001        ..      BEQ      0x984 ; CLK_GetPLLClockFreq + 52
        0x00000980:    2002        .       MOVS     r0,#2
        0x00000982:    e000        ..      B        0x986 ; CLK_GetPLLClockFreq + 54
        0x00000984:    2001        .       MOVS     r0,#1
        0x00000986:    9001        ..      STR      r0,[sp,#4]
        0x00000988:    2003        .       MOVS     r0,#3
        0x0000098a:    0200        ..      LSLS     r0,r0,#8
        0x0000098c:    4028        (@      ANDS     r0,r0,r5
        0x0000098e:    0a06        ..      LSRS     r6,r0,#8
        0x00000990:    2e00        ..      CMP      r6,#0
        0x00000992:    d101        ..      BNE      0x998 ; CLK_GetPLLClockFreq + 72
        0x00000994:    2402        .$      MOVS     r4,#2
        0x00000996:    e008        ..      B        0x9aa ; CLK_GetPLLClockFreq + 90
        0x00000998:    2e01        ..      CMP      r6,#1
        0x0000099a:    d101        ..      BNE      0x9a0 ; CLK_GetPLLClockFreq + 80
        0x0000099c:    2404        .$      MOVS     r4,#4
        0x0000099e:    e004        ..      B        0x9aa ; CLK_GetPLLClockFreq + 90
        0x000009a0:    2e02        ..      CMP      r6,#2
        0x000009a2:    d101        ..      BNE      0x9a8 ; CLK_GetPLLClockFreq + 88
        0x000009a4:    2408        .$      MOVS     r4,#8
        0x000009a6:    e000        ..      B        0x9aa ; CLK_GetPLLClockFreq + 90
        0x000009a8:    2410        .$      MOVS     r4,#0x10
        0x000009aa:    06a9        ..      LSLS     r1,r5,#26
        0x000009ac:    0e89        ..      LSRS     r1,r1,#26
        0x000009ae:    3120         1      ADDS     r1,r1,#0x20
        0x000009b0:    4379        yC      MULS     r1,r7,r1
        0x000009b2:    4608        .F      MOV      r0,r1
        0x000009b4:    4621        !F      MOV      r1,r4
        0x000009b6:    f7fffd31    ..1.    BL       __aeabi_uidiv ; 0x41c
        0x000009ba:    9000        ..      STR      r0,[sp,#0]
        0x000009bc:    9901        ..      LDR      r1,[sp,#4]
        0x000009be:    f7fffd2d    ..-.    BL       __aeabi_uidiv ; 0x41c
        0x000009c2:    9002        ..      STR      r0,[sp,#8]
        0x000009c4:    9802        ..      LDR      r0,[sp,#8]
        0x000009c6:    e7cd        ..      B        0x964 ; CLK_GetPLLClockFreq + 20
    $d
        0x000009c8:    50000200    ...P    DCD    1342177792
        0x000009cc:    00b71b00    ....    DCD    12000000
    $t
    i.CLK_SetCoreClock
    CLK_SetCoreClock
        0x000009d0:    b570        p.      PUSH     {r4-r6,lr}
        0x000009d2:    4604        .F      MOV      r4,r0
        0x000009d4:    4821        !H      LDR      r0,[pc,#132] ; [0xa5c] = 0x50000200
        0x000009d6:    68c0        .h      LDR      r0,[r0,#0xc]
        0x000009d8:    2110        .!      MOVS     r1,#0x10
        0x000009da:    4008        .@      ANDS     r0,r0,r1
        0x000009dc:    4605        .F      MOV      r5,r0
        0x000009de:    4820         H      LDR      r0,[pc,#128] ; [0xa60] = 0xb71b00
        0x000009e0:    4284        .B      CMP      r4,r0
        0x000009e2:    d109        ..      BNE      0x9f8 ; CLK_SetCoreClock + 40
        0x000009e4:    2004        .       MOVS     r0,#4
        0x000009e6:    f7ffff85    ....    BL       CLK_EnableXtalRC ; 0x8f4
        0x000009ea:    2100        .!      MOVS     r1,#0
        0x000009ec:    2007        .       MOVS     r0,#7
        0x000009ee:    f000f841    ..A.    BL       CLK_SetHCLK ; 0xa74
        0x000009f2:    481c        .H      LDR      r0,[pc,#112] ; [0xa64] = 0x20000000
        0x000009f4:    6800        .h      LDR      r0,[r0,#0]
        0x000009f6:    bd70        p.      POP      {r4-r6,pc}
        0x000009f8:    481b        .H      LDR      r0,[pc,#108] ; [0xa68] = 0x16e3600
        0x000009fa:    4284        .B      CMP      r4,r0
        0x000009fc:    d200        ..      BCS      0xa00 ; CLK_SetCoreClock + 48
        0x000009fe:    4604        .F      MOV      r4,r0
        0x00000a00:    481a        .H      LDR      r0,[pc,#104] ; [0xa6c] = 0x280de80
        0x00000a02:    4284        .B      CMP      r4,r0
        0x00000a04:    d900        ..      BLS      0xa08 ; CLK_SetCoreClock + 56
        0x00000a06:    4604        .F      MOV      r4,r0
        0x00000a08:    4814        .H      LDR      r0,[pc,#80] ; [0xa5c] = 0x50000200
        0x00000a0a:    6800        .h      LDR      r0,[r0,#0]
        0x00000a0c:    07c0        ..      LSLS     r0,r0,#31
        0x00000a0e:    0fc0        ..      LSRS     r0,r0,#31
        0x00000a10:    2800        .(      CMP      r0,#0
        0x00000a12:    d004        ..      BEQ      0xa1e ; CLK_SetCoreClock + 78
        0x00000a14:    0061        a.      LSLS     r1,r4,#1
        0x00000a16:    2000        .       MOVS     r0,#0
        0x00000a18:    f7fffefc    ....    BL       CLK_EnablePLL ; 0x814
        0x00000a1c:    e009        ..      B        0xa32 ; CLK_SetCoreClock + 98
        0x00000a1e:    0061        a.      LSLS     r1,r4,#1
        0x00000a20:    2001        .       MOVS     r0,#1
        0x00000a22:    0440        @.      LSLS     r0,r0,#17
        0x00000a24:    f7fffef6    ....    BL       CLK_EnablePLL ; 0x814
        0x00000a28:    480c        .H      LDR      r0,[pc,#48] ; [0xa5c] = 0x50000200
        0x00000a2a:    68c0        .h      LDR      r0,[r0,#0xc]
        0x00000a2c:    2110        .!      MOVS     r1,#0x10
        0x00000a2e:    4008        .@      ANDS     r0,r0,r1
        0x00000a30:    4605        .F      MOV      r5,r0
        0x00000a32:    490f        .I      LDR      r1,[pc,#60] ; [0xa70] = 0x5b8d800
        0x00000a34:    2001        .       MOVS     r0,#1
        0x00000a36:    0440        @.      LSLS     r0,r0,#17
        0x00000a38:    f7fffeec    ....    BL       CLK_EnablePLL ; 0x814
        0x00000a3c:    2101        .!      MOVS     r1,#1
        0x00000a3e:    2002        .       MOVS     r0,#2
        0x00000a40:    f000f818    ....    BL       CLK_SetHCLK ; 0xa74
        0x00000a44:    2d00        .-      CMP      r5,#0
        0x00000a46:    d105        ..      BNE      0xa54 ; CLK_SetCoreClock + 132
        0x00000a48:    4804        .H      LDR      r0,[pc,#16] ; [0xa5c] = 0x50000200
        0x00000a4a:    6800        .h      LDR      r0,[r0,#0]
        0x00000a4c:    2104        .!      MOVS     r1,#4
        0x00000a4e:    4388        .C      BICS     r0,r0,r1
        0x00000a50:    4902        .I      LDR      r1,[pc,#8] ; [0xa5c] = 0x50000200
        0x00000a52:    6008        .`      STR      r0,[r1,#0]
        0x00000a54:    4803        .H      LDR      r0,[pc,#12] ; [0xa64] = 0x20000000
        0x00000a56:    6800        .h      LDR      r0,[r0,#0]
        0x00000a58:    e7cd        ..      B        0x9f6 ; CLK_SetCoreClock + 38
    $d
        0x00000a5a:    0000        ..      DCW    0
        0x00000a5c:    50000200    ...P    DCD    1342177792
        0x00000a60:    00b71b00    ....    DCD    12000000
        0x00000a64:    20000000    ...     DCD    536870912
        0x00000a68:    016e3600    .6n.    DCD    24000000
        0x00000a6c:    0280de80    ....    DCD    42000000
        0x00000a70:    05b8d800    ....    DCD    96000000
    $t
    i.CLK_SetHCLK
    CLK_SetHCLK
        0x00000a74:    b570        p.      PUSH     {r4-r6,lr}
        0x00000a76:    4604        .F      MOV      r4,r0
        0x00000a78:    460d        .F      MOV      r5,r1
        0x00000a7a:    4816        .H      LDR      r0,[pc,#88] ; [0xad4] = 0x50000200
        0x00000a7c:    68c0        .h      LDR      r0,[r0,#0xc]
        0x00000a7e:    2110        .!      MOVS     r1,#0x10
        0x00000a80:    4008        .@      ANDS     r0,r0,r1
        0x00000a82:    4606        .F      MOV      r6,r0
        0x00000a84:    4813        .H      LDR      r0,[pc,#76] ; [0xad4] = 0x50000200
        0x00000a86:    6800        .h      LDR      r0,[r0,#0]
        0x00000a88:    2104        .!      MOVS     r1,#4
        0x00000a8a:    4308        .C      ORRS     r0,r0,r1
        0x00000a8c:    4911        .I      LDR      r1,[pc,#68] ; [0xad4] = 0x50000200
        0x00000a8e:    6008        .`      STR      r0,[r1,#0]
        0x00000a90:    2010        .       MOVS     r0,#0x10
        0x00000a92:    f000f86d    ..m.    BL       CLK_WaitClockReady ; 0xb70
        0x00000a96:    480f        .H      LDR      r0,[pc,#60] ; [0xad4] = 0x50000200
        0x00000a98:    6900        .i      LDR      r0,[r0,#0x10]
        0x00000a9a:    08c0        ..      LSRS     r0,r0,#3
        0x00000a9c:    00c0        ..      LSLS     r0,r0,#3
        0x00000a9e:    1dc0        ..      ADDS     r0,r0,#7
        0x00000aa0:    490c        .I      LDR      r1,[pc,#48] ; [0xad4] = 0x50000200
        0x00000aa2:    6108        .a      STR      r0,[r1,#0x10]
        0x00000aa4:    4608        .F      MOV      r0,r1
        0x00000aa6:    69c0        .i      LDR      r0,[r0,#0x1c]
        0x00000aa8:    0900        ..      LSRS     r0,r0,#4
        0x00000aaa:    0100        ..      LSLS     r0,r0,#4
        0x00000aac:    4328        (C      ORRS     r0,r0,r5
        0x00000aae:    61c8        .a      STR      r0,[r1,#0x1c]
        0x00000ab0:    4608        .F      MOV      r0,r1
        0x00000ab2:    6900        .i      LDR      r0,[r0,#0x10]
        0x00000ab4:    08c0        ..      LSRS     r0,r0,#3
        0x00000ab6:    00c0        ..      LSLS     r0,r0,#3
        0x00000ab8:    4320         C      ORRS     r0,r0,r4
        0x00000aba:    6108        .a      STR      r0,[r1,#0x10]
        0x00000abc:    f000fdd4    ....    BL       SystemCoreClockUpdate ; 0x1668
        0x00000ac0:    2e00        ..      CMP      r6,#0
        0x00000ac2:    d105        ..      BNE      0xad0 ; CLK_SetHCLK + 92
        0x00000ac4:    4803        .H      LDR      r0,[pc,#12] ; [0xad4] = 0x50000200
        0x00000ac6:    6800        .h      LDR      r0,[r0,#0]
        0x00000ac8:    2110        .!      MOVS     r1,#0x10
        0x00000aca:    4388        .C      BICS     r0,r0,r1
        0x00000acc:    4901        .I      LDR      r1,[pc,#4] ; [0xad4] = 0x50000200
        0x00000ace:    6008        .`      STR      r0,[r1,#0]
        0x00000ad0:    bd70        p.      POP      {r4-r6,pc}
    $d
        0x00000ad2:    0000        ..      DCW    0
        0x00000ad4:    50000200    ...P    DCD    1342177792
    $t
    i.CLK_SetModuleClock
    CLK_SetModuleClock
        0x00000ad8:    b5f0        ..      PUSH     {r4-r7,lr}
        0x00000ada:    460b        .F      MOV      r3,r1
        0x00000adc:    2100        .!      MOVS     r1,#0
        0x00000ade:    2400        .$      MOVS     r4,#0
        0x00000ae0:    2500        .%      MOVS     r5,#0
        0x00000ae2:    0386        ..      LSLS     r6,r0,#14
        0x00000ae4:    0e36        6.      LSRS     r6,r6,#24
        0x00000ae6:    2e00        ..      CMP      r6,#0
        0x00000ae8:    d00f        ..      BEQ      0xb0a ; CLK_SetModuleClock + 50
        0x00000aea:    0306        ..      LSLS     r6,r0,#12
        0x00000aec:    0fb6        ..      LSRS     r6,r6,#30
        0x00000aee:    00b6        ..      LSLS     r6,r6,#2
        0x00000af0:    4f11        .O      LDR      r7,[pc,#68] ; [0xb38] = 0x5000021c
        0x00000af2:    19f5        ..      ADDS     r5,r6,r7
        0x00000af4:    6829        )h      LDR      r1,[r5,#0]
        0x00000af6:    0386        ..      LSLS     r6,r0,#14
        0x00000af8:    0e37        7.      LSRS     r7,r6,#24
        0x00000afa:    0586        ..      LSLS     r6,r0,#22
        0x00000afc:    0ef6        ..      LSRS     r6,r6,#27
        0x00000afe:    40b7        .@      LSLS     r7,r7,r6
        0x00000b00:    460e        .F      MOV      r6,r1
        0x00000b02:    43be        .C      BICS     r6,r6,r7
        0x00000b04:    4316        .C      ORRS     r6,r6,r2
        0x00000b06:    4631        1F      MOV      r1,r6
        0x00000b08:    6029        )`      STR      r1,[r5,#0]
        0x00000b0a:    00c6        ..      LSLS     r6,r0,#3
        0x00000b0c:    0f36        6.      LSRS     r6,r6,#28
        0x00000b0e:    2e00        ..      CMP      r6,#0
        0x00000b10:    d010        ..      BEQ      0xb34 ; CLK_SetModuleClock + 92
        0x00000b12:    0046        F.      LSLS     r6,r0,#1
        0x00000b14:    0fb6        ..      LSRS     r6,r6,#30
        0x00000b16:    00b6        ..      LSLS     r6,r6,#2
        0x00000b18:    4f07        .O      LDR      r7,[pc,#28] ; [0xb38] = 0x5000021c
        0x00000b1a:    3f0c        .?      SUBS     r7,r7,#0xc
        0x00000b1c:    19f4        ..      ADDS     r4,r6,r7
        0x00000b1e:    6821        !h      LDR      r1,[r4,#0]
        0x00000b20:    00c6        ..      LSLS     r6,r0,#3
        0x00000b22:    0f37        7.      LSRS     r7,r6,#28
        0x00000b24:    01c6        ..      LSLS     r6,r0,#7
        0x00000b26:    0ef6        ..      LSRS     r6,r6,#27
        0x00000b28:    40b7        .@      LSLS     r7,r7,r6
        0x00000b2a:    460e        .F      MOV      r6,r1
        0x00000b2c:    43be        .C      BICS     r6,r6,r7
        0x00000b2e:    431e        .C      ORRS     r6,r6,r3
        0x00000b30:    4631        1F      MOV      r1,r6
        0x00000b32:    6021        !`      STR      r1,[r4,#0]
        0x00000b34:    bdf0        ..      POP      {r4-r7,pc}
    $d
        0x00000b36:    0000        ..      DCW    0
        0x00000b38:    5000021c    ...P    DCD    1342177820
    $t
    i.CLK_SysTickDelay
    CLK_SysTickDelay
        0x00000b3c:    490a        .I      LDR      r1,[pc,#40] ; [0xb68] = 0x20000004
        0x00000b3e:    6809        .h      LDR      r1,[r1,#0]
        0x00000b40:    4341        AC      MULS     r1,r0,r1
        0x00000b42:    4a0a        .J      LDR      r2,[pc,#40] ; [0xb6c] = 0xe000e000
        0x00000b44:    6151        Qa      STR      r1,[r2,#0x14]
        0x00000b46:    2100        .!      MOVS     r1,#0
        0x00000b48:    6191        .a      STR      r1,[r2,#0x18]
        0x00000b4a:    2105        .!      MOVS     r1,#5
        0x00000b4c:    6111        .a      STR      r1,[r2,#0x10]
        0x00000b4e:    bf00        ..      NOP      
        0x00000b50:    4906        .I      LDR      r1,[pc,#24] ; [0xb6c] = 0xe000e000
        0x00000b52:    6909        .i      LDR      r1,[r1,#0x10]
        0x00000b54:    2201        ."      MOVS     r2,#1
        0x00000b56:    0412        ..      LSLS     r2,r2,#16
        0x00000b58:    4011        .@      ANDS     r1,r1,r2
        0x00000b5a:    2900        .)      CMP      r1,#0
        0x00000b5c:    d0f8        ..      BEQ      0xb50 ; CLK_SysTickDelay + 20
        0x00000b5e:    2100        .!      MOVS     r1,#0
        0x00000b60:    4a02        .J      LDR      r2,[pc,#8] ; [0xb6c] = 0xe000e000
        0x00000b62:    6111        .a      STR      r1,[r2,#0x10]
        0x00000b64:    4770        pG      BX       lr
    $d
        0x00000b66:    0000        ..      DCW    0
        0x00000b68:    20000004    ...     DCD    536870916
        0x00000b6c:    e000e000    ....    DCD    3758153728
    $t
    i.CLK_WaitClockReady
    CLK_WaitClockReady
        0x00000b70:    4601        .F      MOV      r1,r0
        0x00000b72:    4a07        .J      LDR      r2,[pc,#28] ; [0xb90] = 0xea60
        0x00000b74:    e005        ..      B        0xb82 ; CLK_WaitClockReady + 18
        0x00000b76:    4610        .F      MOV      r0,r2
        0x00000b78:    1e52        R.      SUBS     r2,r2,#1
        0x00000b7a:    2800        .(      CMP      r0,#0
        0x00000b7c:    dc01        ..      BGT      0xb82 ; CLK_WaitClockReady + 18
        0x00000b7e:    2000        .       MOVS     r0,#0
        0x00000b80:    4770        pG      BX       lr
        0x00000b82:    4804        .H      LDR      r0,[pc,#16] ; [0xb94] = 0x50000200
        0x00000b84:    68c0        .h      LDR      r0,[r0,#0xc]
        0x00000b86:    4008        .@      ANDS     r0,r0,r1
        0x00000b88:    4288        .B      CMP      r0,r1
        0x00000b8a:    d1f4        ..      BNE      0xb76 ; CLK_WaitClockReady + 6
        0x00000b8c:    2001        .       MOVS     r0,#1
        0x00000b8e:    e7f7        ..      B        0xb80 ; CLK_WaitClockReady + 16
    $d
        0x00000b90:    0000ea60    `...    DCD    60000
        0x00000b94:    50000200    ...P    DCD    1342177792
    $t
    i.CheckChipId
    CheckChipId
        0x00000b98:    b570        p.      PUSH     {r4-r6,lr}
        0x00000b9a:    a012        ..      ADR      r0,{pc}+0x4a ; 0xbe4
        0x00000b9c:    f7fffb1e    ....    BL       __2printf ; 0x1dc
        0x00000ba0:    2180        .!      MOVS     r1,#0x80
        0x00000ba2:    20ff        .       MOVS     r0,#0xff
        0x00000ba4:    f000f985    ....    BL       LT_WriteI2C_Byte ; 0xeb2
        0x00000ba8:    2101        .!      MOVS     r1,#1
        0x00000baa:    20ee        .       MOVS     r0,#0xee
        0x00000bac:    f000f981    ....    BL       LT_WriteI2C_Byte ; 0xeb2
        0x00000bb0:    21a0        .!      MOVS     r1,#0xa0
        0x00000bb2:    20ff        .       MOVS     r0,#0xff
        0x00000bb4:    f000f97d    ..}.    BL       LT_WriteI2C_Byte ; 0xeb2
        0x00000bb8:    2000        .       MOVS     r0,#0
        0x00000bba:    f000f959    ..Y.    BL       LT_ReadI2C_Byte ; 0xe70
        0x00000bbe:    4605        .F      MOV      r5,r0
        0x00000bc0:    2001        .       MOVS     r0,#1
        0x00000bc2:    f000f955    ..U.    BL       LT_ReadI2C_Byte ; 0xe70
        0x00000bc6:    4606        .F      MOV      r6,r0
        0x00000bc8:    0228        (.      LSLS     r0,r5,#8
        0x00000bca:    4330        0C      ORRS     r0,r0,r6
        0x00000bcc:    4604        .F      MOV      r4,r0
        0x00000bce:    4621        !F      MOV      r1,r4
        0x00000bd0:    a008        ..      ADR      r0,{pc}+0x24 ; 0xbf4
        0x00000bd2:    f7fffb03    ....    BL       __2printf ; 0x1dc
        0x00000bd6:    480c        .H      LDR      r0,[pc,#48] ; [0xc08] = 0x1605
        0x00000bd8:    4284        .B      CMP      r4,r0
        0x00000bda:    d101        ..      BNE      0xbe0 ; CheckChipId + 72
        0x00000bdc:    2001        .       MOVS     r0,#1
        0x00000bde:    bd70        p.      POP      {r4-r6,pc}
        0x00000be0:    2000        .       MOVS     r0,#0
        0x00000be2:    e7fc        ..      B        0xbde ; CheckChipId + 70
    $d
        0x00000be4:    63656843    Chec    DCD    1667590211
        0x00000be8:    6968436b    kChi    DCD    1768440683
        0x00000bec:    20644970    pId     DCD    543443312
        0x00000bf0:    0000000a    ....    DCD    10
        0x00000bf4:    63656843    Chec    DCD    1667590211
        0x00000bf8:    6968436b    kChi    DCD    1768440683
        0x00000bfc:    20644970    pId     DCD    543443312
        0x00000c00:    25783020     0x%    DCD    628633632
        0x00000c04:    000a2078    x ..    DCD    663672
        0x00000c08:    00001605    ....    DCD    5637
    $t
    i.Config
    Config
        0x00000c0c:    b510        ..      PUSH     {r4,lr}
        0x00000c0e:    a012        ..      ADR      r0,{pc}+0x4a ; 0xc58
        0x00000c10:    f7fffae4    ....    BL       __2printf ; 0x1dc
        0x00000c14:    2180        .!      MOVS     r1,#0x80
        0x00000c16:    20ff        .       MOVS     r0,#0xff
        0x00000c18:    f000f94b    ..K.    BL       LT_WriteI2C_Byte ; 0xeb2
        0x00000c1c:    2101        .!      MOVS     r1,#1
        0x00000c1e:    20ee        .       MOVS     r0,#0xee
        0x00000c20:    f000f947    ..G.    BL       LT_WriteI2C_Byte ; 0xeb2
        0x00000c24:    2182        .!      MOVS     r1,#0x82
        0x00000c26:    205a        Z       MOVS     r0,#0x5a
        0x00000c28:    f000f943    ..C.    BL       LT_WriteI2C_Byte ; 0xeb2
        0x00000c2c:    21c0        .!      MOVS     r1,#0xc0
        0x00000c2e:    205e        ^       MOVS     r0,#0x5e
        0x00000c30:    f000f93f    ..?.    BL       LT_WriteI2C_Byte ; 0xeb2
        0x00000c34:    2100        .!      MOVS     r1,#0
        0x00000c36:    2058        X       MOVS     r0,#0x58
        0x00000c38:    f000f93b    ..;.    BL       LT_WriteI2C_Byte ; 0xeb2
        0x00000c3c:    2151        Q!      MOVS     r1,#0x51
        0x00000c3e:    2059        Y       MOVS     r0,#0x59
        0x00000c40:    f000f937    ..7.    BL       LT_WriteI2C_Byte ; 0xeb2
        0x00000c44:    2192        .!      MOVS     r1,#0x92
        0x00000c46:    205a        Z       MOVS     r0,#0x5a
        0x00000c48:    f000f933    ..3.    BL       LT_WriteI2C_Byte ; 0xeb2
        0x00000c4c:    2182        .!      MOVS     r1,#0x82
        0x00000c4e:    205a        Z       MOVS     r0,#0x5a
        0x00000c50:    f000f92f    ../.    BL       LT_WriteI2C_Byte ; 0xeb2
        0x00000c54:    bd10        ..      POP      {r4,pc}
    $d
        0x00000c56:    0000        ..      DCW    0
        0x00000c58:    666e6f43    Conf    DCD    1718513475
        0x00000c5c:    0a206769    ig .    DCD    169895785
        0x00000c60:    00000000    ....    DCD    0
    $t
    i.Ecx335af_Init
    Ecx335af_Init
        0x00000c64:    b510        ..      PUSH     {r4,lr}
        0x00000c66:    2400        .$      MOVS     r4,#0
        0x00000c68:    bf00        ..      NOP      
        0x00000c6a:    e005        ..      B        0xc78 ; Ecx335af_Init + 20
        0x00000c6c:    4a09        .J      LDR      r2,[pc,#36] ; [0xc94] = 0x20000010
        0x00000c6e:    5d11        .]      LDRB     r1,[r2,r4]
        0x00000c70:    b2e0        ..      UXTB     r0,r4
        0x00000c72:    f000fc2f    ../.    BL       Spi_WriteReg_1 ; 0x14d4
        0x00000c76:    1c64        d.      ADDS     r4,r4,#1
        0x00000c78:    2c82        .,      CMP      r4,#0x82
        0x00000c7a:    d3f7        ..      BCC      0xc6c ; Ecx335af_Init + 8
        0x00000c7c:    2400        .$      MOVS     r4,#0
        0x00000c7e:    e005        ..      B        0xc8c ; Ecx335af_Init + 40
        0x00000c80:    4a04        .J      LDR      r2,[pc,#16] ; [0xc94] = 0x20000010
        0x00000c82:    5d11        .]      LDRB     r1,[r2,r4]
        0x00000c84:    b2e0        ..      UXTB     r0,r4
        0x00000c86:    f000fc55    ..U.    BL       Spi_WriteReg_2 ; 0x1534
        0x00000c8a:    1c64        d.      ADDS     r4,r4,#1
        0x00000c8c:    2c82        .,      CMP      r4,#0x82
        0x00000c8e:    d3f7        ..      BCC      0xc80 ; Ecx335af_Init + 28
        0x00000c90:    bd10        ..      POP      {r4,pc}
    $d
        0x00000c92:    0000        ..      DCW    0
        0x00000c94:    20000010    ...     DCD    536870928
    $t
    i.Ecx335af_Power_On
    Ecx335af_Power_On
        0x00000c98:    b510        ..      PUSH     {r4,lr}
        0x00000c9a:    2001        .       MOVS     r0,#1
        0x00000c9c:    4915        .I      LDR      r1,[pc,#84] ; [0xcf4] = 0x50004200
        0x00000c9e:    6248        Hb      STR      r0,[r1,#0x24]
        0x00000ca0:    2014        .       MOVS     r0,#0x14
        0x00000ca2:    f000ff7c    ..|.    BL       delay_ms ; 0x1b9e
        0x00000ca6:    f7ffffdd    ....    BL       Ecx335af_Init ; 0xc64
        0x00000caa:    2001        .       MOVS     r0,#1
        0x00000cac:    f000ff77    ..w.    BL       delay_ms ; 0x1b9e
        0x00000cb0:    f001f948    ..H.    BL       step_1 ; 0x1f44
        0x00000cb4:    200a        .       MOVS     r0,#0xa
        0x00000cb6:    f000ff72    ..r.    BL       delay_ms ; 0x1b9e
        0x00000cba:    f001f978    ..x.    BL       step_2 ; 0x1fae
        0x00000cbe:    2014        .       MOVS     r0,#0x14
        0x00000cc0:    f000ff6d    ..m.    BL       delay_ms ; 0x1b9e
        0x00000cc4:    f001f980    ....    BL       step_3 ; 0x1fc8
        0x00000cc8:    2064        d       MOVS     r0,#0x64
        0x00000cca:    f000ff68    ..h.    BL       delay_ms ; 0x1b9e
        0x00000cce:    f001f988    ....    BL       step_4 ; 0x1fe2
        0x00000cd2:    2014        .       MOVS     r0,#0x14
        0x00000cd4:    f000ff63    ..c.    BL       delay_ms ; 0x1b9e
        0x00000cd8:    f001f990    ....    BL       step_5 ; 0x1ffc
        0x00000cdc:    2014        .       MOVS     r0,#0x14
        0x00000cde:    f000ff5e    ..^.    BL       delay_ms ; 0x1b9e
        0x00000ce2:    f001f9a0    ....    BL       step_6 ; 0x2026
        0x00000ce6:    2014        .       MOVS     r0,#0x14
        0x00000ce8:    f000ff59    ..Y.    BL       delay_ms ; 0x1b9e
        0x00000cec:    f001f9c0    ....    BL       step_6_1 ; 0x2070
        0x00000cf0:    bd10        ..      POP      {r4,pc}
    $d
        0x00000cf2:    0000        ..      DCW    0
        0x00000cf4:    50004200    .B.P    DCD    1342194176
    $t
    i.Ecx335af_spi2_init
    Ecx335af_spi2_init
        0x00000cf8:    b510        ..      PUSH     {r4,lr}
        0x00000cfa:    bf00        ..      NOP      
        0x00000cfc:    e006        ..      B        0xd0c ; Ecx335af_spi2_init + 20
        0x00000cfe:    2059        Y       MOVS     r0,#0x59
        0x00000d00:    4919        .I      LDR      r1,[pc,#100] ; [0xd68] = 0x50000100
        0x00000d02:    6008        .`      STR      r0,[r1,#0]
        0x00000d04:    2016        .       MOVS     r0,#0x16
        0x00000d06:    6008        .`      STR      r0,[r1,#0]
        0x00000d08:    2088        .       MOVS     r0,#0x88
        0x00000d0a:    6008        .`      STR      r0,[r1,#0]
        0x00000d0c:    4816        .H      LDR      r0,[pc,#88] ; [0xd68] = 0x50000100
        0x00000d0e:    6800        .h      LDR      r0,[r0,#0]
        0x00000d10:    2801        .(      CMP      r0,#1
        0x00000d12:    d1f4        ..      BNE      0xcfe ; Ecx335af_spi2_init + 6
        0x00000d14:    bf00        ..      NOP      
        0x00000d16:    2201        ."      MOVS     r2,#1
        0x00000d18:    2100        .!      MOVS     r1,#0
        0x00000d1a:    4814        .H      LDR      r0,[pc,#80] ; [0xd6c] = 0xc360000e
        0x00000d1c:    f7fffedc    ....    BL       CLK_SetModuleClock ; 0xad8
        0x00000d20:    4812        .H      LDR      r0,[pc,#72] ; [0xd6c] = 0xc360000e
        0x00000d22:    f7fffd65    ..e.    BL       CLK_EnableModuleClock ; 0x7f0
        0x00000d26:    2005        .       MOVS     r0,#5
        0x00000d28:    0700        ..      LSLS     r0,r0,#28
        0x00000d2a:    6b80        .k      LDR      r0,[r0,#0x38]
        0x00000d2c:    4910        .I      LDR      r1,[pc,#64] ; [0xd70] = 0x888fffff
        0x00000d2e:    4008        .@      ANDS     r0,r0,r1
        0x00000d30:    2105        .!      MOVS     r1,#5
        0x00000d32:    0709        ..      LSLS     r1,r1,#28
        0x00000d34:    6388        .c      STR      r0,[r1,#0x38]
        0x00000d36:    480f        .H      LDR      r0,[pc,#60] ; [0xd74] = 0x44400000
        0x00000d38:    6388        .c      STR      r0,[r1,#0x38]
        0x00000d3a:    bf00        ..      NOP      
        0x00000d3c:    2000        .       MOVS     r0,#0
        0x00000d3e:    490a        .I      LDR      r1,[pc,#40] ; [0xd68] = 0x50000100
        0x00000d40:    6008        .`      STR      r0,[r1,#0]
        0x00000d42:    bf00        ..      NOP      
        0x00000d44:    2201        ."      MOVS     r2,#1
        0x00000d46:    0211        ..      LSLS     r1,r2,#8
        0x00000d48:    480b        .H      LDR      r0,[pc,#44] ; [0xd78] = 0x50004000
        0x00000d4a:    f000f83f    ..?.    BL       GPIO_SetMode ; 0xdcc
        0x00000d4e:    2201        ."      MOVS     r2,#1
        0x00000d50:    2110        .!      MOVS     r1,#0x10
        0x00000d52:    4809        .H      LDR      r0,[pc,#36] ; [0xd78] = 0x50004000
        0x00000d54:    3040        @0      ADDS     r0,r0,#0x40
        0x00000d56:    f000f839    ..9.    BL       GPIO_SetMode ; 0xdcc
        0x00000d5a:    2001        .       MOVS     r0,#1
        0x00000d5c:    4907        .I      LDR      r1,[pc,#28] ; [0xd7c] = 0x50004200
        0x00000d5e:    6208        .b      STR      r0,[r1,#0x20]
        0x00000d60:    4906        .I      LDR      r1,[pc,#24] ; [0xd7c] = 0x50004200
        0x00000d62:    3140        @1      ADDS     r1,r1,#0x40
        0x00000d64:    6108        .a      STR      r0,[r1,#0x10]
        0x00000d66:    bd10        ..      POP      {r4,pc}
    $d
        0x00000d68:    50000100    ...P    DCD    1342177536
        0x00000d6c:    c360000e    ..`.    DCD    3277848590
        0x00000d70:    888fffff    ....    DCD    2291138559
        0x00000d74:    44400000    ..@D    DCD    1145044992
        0x00000d78:    50004000    .@.P    DCD    1342193664
        0x00000d7c:    50004200    .B.P    DCD    1342194176
    $t
    i.GPIO_Init
    GPIO_Init
        0x00000d80:    b510        ..      PUSH     {r4,lr}
        0x00000d82:    2201        ."      MOVS     r2,#1
        0x00000d84:    03d1        ..      LSLS     r1,r2,#15
        0x00000d86:    480f        .H      LDR      r0,[pc,#60] ; [0xdc4] = 0x50004040
        0x00000d88:    f000f820    .. .    BL       GPIO_SetMode ; 0xdcc
        0x00000d8c:    2001        .       MOVS     r0,#1
        0x00000d8e:    490e        .I      LDR      r1,[pc,#56] ; [0xdc8] = 0x50004240
        0x00000d90:    63c8        .c      STR      r0,[r1,#0x3c]
        0x00000d92:    2202        ."      MOVS     r2,#2
        0x00000d94:    2110        .!      MOVS     r1,#0x10
        0x00000d96:    480b        .H      LDR      r0,[pc,#44] ; [0xdc4] = 0x50004040
        0x00000d98:    3840        @8      SUBS     r0,r0,#0x40
        0x00000d9a:    f000f817    ....    BL       GPIO_SetMode ; 0xdcc
        0x00000d9e:    2202        ."      MOVS     r2,#2
        0x00000da0:    2120         !      MOVS     r1,#0x20
        0x00000da2:    4808        .H      LDR      r0,[pc,#32] ; [0xdc4] = 0x50004040
        0x00000da4:    3840        @8      SUBS     r0,r0,#0x40
        0x00000da6:    f000f811    ....    BL       GPIO_SetMode ; 0xdcc
        0x00000daa:    2202        ."      MOVS     r2,#2
        0x00000dac:    0251        Q.      LSLS     r1,r2,#9
        0x00000dae:    4805        .H      LDR      r0,[pc,#20] ; [0xdc4] = 0x50004040
        0x00000db0:    f000f80c    ....    BL       GPIO_SetMode ; 0xdcc
        0x00000db4:    2201        ."      MOVS     r2,#1
        0x00000db6:    0251        Q.      LSLS     r1,r2,#9
        0x00000db8:    4802        .H      LDR      r0,[pc,#8] ; [0xdc4] = 0x50004040
        0x00000dba:    3840        @8      SUBS     r0,r0,#0x40
        0x00000dbc:    f000f806    ....    BL       GPIO_SetMode ; 0xdcc
        0x00000dc0:    bd10        ..      POP      {r4,pc}
    $d
        0x00000dc2:    0000        ..      DCW    0
        0x00000dc4:    50004040    @@.P    DCD    1342193728
        0x00000dc8:    50004240    @B.P    DCD    1342194240
    $t
    i.GPIO_SetMode
    GPIO_SetMode
        0x00000dcc:    b570        p.      PUSH     {r4-r6,lr}
        0x00000dce:    4603        .F      MOV      r3,r0
        0x00000dd0:    2000        .       MOVS     r0,#0
        0x00000dd2:    e00f        ..      B        0xdf4 ; GPIO_SetMode + 40
        0x00000dd4:    2401        .$      MOVS     r4,#1
        0x00000dd6:    4084        .@      LSLS     r4,r4,r0
        0x00000dd8:    400c        .@      ANDS     r4,r4,r1
        0x00000dda:    2c00        .,      CMP      r4,#0
        0x00000ddc:    d009        ..      BEQ      0xdf2 ; GPIO_SetMode + 38
        0x00000dde:    681c        .h      LDR      r4,[r3,#0]
        0x00000de0:    0046        F.      LSLS     r6,r0,#1
        0x00000de2:    2503        .%      MOVS     r5,#3
        0x00000de4:    40b5        .@      LSLS     r5,r5,r6
        0x00000de6:    43ac        .C      BICS     r4,r4,r5
        0x00000de8:    0046        F.      LSLS     r6,r0,#1
        0x00000dea:    4615        .F      MOV      r5,r2
        0x00000dec:    40b5        .@      LSLS     r5,r5,r6
        0x00000dee:    432c        ,C      ORRS     r4,r4,r5
        0x00000df0:    601c        .`      STR      r4,[r3,#0]
        0x00000df2:    1c40        @.      ADDS     r0,r0,#1
        0x00000df4:    2810        .(      CMP      r0,#0x10
        0x00000df6:    d3ed        ..      BCC      0xdd4 ; GPIO_SetMode + 8
        0x00000df8:    bd70        p.      POP      {r4-r6,pc}
        0x00000dfa:    0000        ..      MOVS     r0,r0
    i.Hard_Fault_Handler
    Hard_Fault_Handler
    __tagsym$$used
        0x00000dfc:    4604        .F      MOV      r4,r0
        0x00000dfe:    a004        ..      ADR      r0,{pc}+0x12 ; 0xe10
        0x00000e00:    f7fff9ec    ....    BL       __2printf ; 0x1dc
        0x00000e04:    4620         F      MOV      r0,r4
        0x00000e06:    f001f849    ..I.    BL       stackDump ; 0x1e9c
        0x00000e0a:    bf00        ..      NOP      
        0x00000e0c:    e7fe        ..      B        0xe0c ; Hard_Fault_Handler + 16
    $d
        0x00000e0e:    0000        ..      DCW    0
        0x00000e10:    48206e49    In H    DCD    1210084937
        0x00000e14:    20647261    ard     DCD    543453793
        0x00000e18:    6c756146    Faul    DCD    1819631942
        0x00000e1c:    61482074    t Ha    DCD    1632116852
        0x00000e20:    656c646e    ndle    DCD    1701602414
        0x00000e24:    00000a72    r...    DCD    2674
    $t
    i.LT7211_Firmware_Upgrade
    LT7211_Firmware_Upgrade
        0x00000e28:    b510        ..      PUSH     {r4,lr}
        0x00000e2a:    a00a        ..      ADR      r0,{pc}+0x2a ; 0xe54
        0x00000e2c:    f7fff9d6    ....    BL       __2printf ; 0x1dc
        0x00000e30:    f7fffeb2    ....    BL       CheckChipId ; 0xb98
        0x00000e34:    2800        .(      CMP      r0,#0
        0x00000e36:    d00b        ..      BEQ      0xe50 ; LT7211_Firmware_Upgrade + 40
        0x00000e38:    f7fffee8    ....    BL       Config ; 0xc0c
        0x00000e3c:    f000f84e    ..N.    BL       ReadKey ; 0xedc
        0x00000e40:    f7fffc9c    ....    BL       BlockErase ; 0x77c
        0x00000e44:    f000fd58    ..X.    BL       Write_Frimware ; 0x18f8
        0x00000e48:    f000fc74    ..t.    BL       Verify_Firmware ; 0x1734
        0x00000e4c:    f000fe02    ....    BL       Write_Key ; 0x1a54
        0x00000e50:    bd10        ..      POP      {r4,pc}
    $d
        0x00000e52:    0000        ..      DCW    0
        0x00000e54:    3237544c    LT72    DCD    842486860
        0x00000e58:    465f3131    11_F    DCD    1180643633
        0x00000e5c:    776d7269    irmw    DCD    2003661417
        0x00000e60:    5f657261    are_    DCD    1600483937
        0x00000e64:    72677055    Upgr    DCD    1919381589
        0x00000e68:    20656461    ade     DCD    543515745
        0x00000e6c:    0000000a    ....    DCD    10
    $t
    i.LT_ReadI2C_Byte
    LT_ReadI2C_Byte
        0x00000e70:    b538        8.      PUSH     {r3-r5,lr}
        0x00000e72:    4604        .F      MOV      r4,r0
        0x00000e74:    2000        .       MOVS     r0,#0
        0x00000e76:    9000        ..      STR      r0,[sp,#0]
        0x00000e78:    2301        .#      MOVS     r3,#1
        0x00000e7a:    466a        jF      MOV      r2,sp
        0x00000e7c:    4621        !F      MOV      r1,r4
        0x00000e7e:    2056        V       MOVS     r0,#0x56
        0x00000e80:    f000fed4    ....    BL       iic_read_byte ; 0x1c2c
        0x00000e84:    2801        .(      CMP      r0,#1
        0x00000e86:    d001        ..      BEQ      0xe8c ; LT_ReadI2C_Byte + 28
        0x00000e88:    2000        .       MOVS     r0,#0
        0x00000e8a:    bd38        8.      POP      {r3-r5,pc}
        0x00000e8c:    4668        hF      MOV      r0,sp
        0x00000e8e:    7800        .x      LDRB     r0,[r0,#0]
        0x00000e90:    e7fb        ..      B        0xe8a ; LT_ReadI2C_Byte + 26
    i.LT_ReadI2C_ByteN
    LT_ReadI2C_ByteN
        0x00000e92:    b570        p.      PUSH     {r4-r6,lr}
        0x00000e94:    4604        .F      MOV      r4,r0
        0x00000e96:    460d        .F      MOV      r5,r1
        0x00000e98:    4616        .F      MOV      r6,r2
        0x00000e9a:    4633        3F      MOV      r3,r6
        0x00000e9c:    462a        *F      MOV      r2,r5
        0x00000e9e:    4621        !F      MOV      r1,r4
        0x00000ea0:    2056        V       MOVS     r0,#0x56
        0x00000ea2:    f000fec3    ....    BL       iic_read_byte ; 0x1c2c
        0x00000ea6:    2801        .(      CMP      r0,#1
        0x00000ea8:    d001        ..      BEQ      0xeae ; LT_ReadI2C_ByteN + 28
        0x00000eaa:    2000        .       MOVS     r0,#0
        0x00000eac:    bd70        p.      POP      {r4-r6,pc}
        0x00000eae:    2001        .       MOVS     r0,#1
        0x00000eb0:    e7fc        ..      B        0xeac ; LT_ReadI2C_ByteN + 26
    i.LT_WriteI2C_Byte
    LT_WriteI2C_Byte
        0x00000eb2:    b513        ..      PUSH     {r0,r1,r4,lr}
        0x00000eb4:    4604        .F      MOV      r4,r0
        0x00000eb6:    2301        .#      MOVS     r3,#1
        0x00000eb8:    aa01        ..      ADD      r2,sp,#4
        0x00000eba:    4621        !F      MOV      r1,r4
        0x00000ebc:    2056        V       MOVS     r0,#0x56
        0x00000ebe:    f000ff81    ....    BL       iic_write_byte ; 0x1dc4
        0x00000ec2:    bd1c        ..      POP      {r2-r4,pc}
    i.LT_WriteI2C_ByteN
    LT_WriteI2C_ByteN
        0x00000ec4:    b570        p.      PUSH     {r4-r6,lr}
        0x00000ec6:    4604        .F      MOV      r4,r0
        0x00000ec8:    460d        .F      MOV      r5,r1
        0x00000eca:    4616        .F      MOV      r6,r2
        0x00000ecc:    b2f3        ..      UXTB     r3,r6
        0x00000ece:    462a        *F      MOV      r2,r5
        0x00000ed0:    4621        !F      MOV      r1,r4
        0x00000ed2:    2056        V       MOVS     r0,#0x56
        0x00000ed4:    f000ff76    ..v.    BL       iic_write_byte ; 0x1dc4
        0x00000ed8:    bd70        p.      POP      {r4-r6,pc}
        0x00000eda:    0000        ..      MOVS     r0,r0
    i.ReadKey
    ReadKey
        0x00000edc:    b5f0        ..      PUSH     {r4-r7,lr}
        0x00000ede:    b0a5        ..      SUB      sp,sp,#0x94
        0x00000ee0:    a053        S.      ADR      r0,{pc}+0x150 ; 0x1030
        0x00000ee2:    f7fff97b    ..{.    BL       __2printf ; 0x1dc
        0x00000ee6:    2180        .!      MOVS     r1,#0x80
        0x00000ee8:    20ff        .       MOVS     r0,#0xff
        0x00000eea:    f7ffffe2    ....    BL       LT_WriteI2C_Byte ; 0xeb2
        0x00000eee:    2101        .!      MOVS     r1,#1
        0x00000ef0:    20ee        .       MOVS     r0,#0xee
        0x00000ef2:    f7ffffde    ....    BL       LT_WriteI2C_Byte ; 0xeb2
        0x00000ef6:    2190        .!      MOVS     r1,#0x90
        0x00000ef8:    20ff        .       MOVS     r0,#0xff
        0x00000efa:    f7ffffda    ....    BL       LT_WriteI2C_Byte ; 0xeb2
        0x00000efe:    2002        .       MOVS     r0,#2
        0x00000f00:    f7ffffb6    ....    BL       LT_ReadI2C_Byte ; 0xe70
        0x00000f04:    9023        #.      STR      r0,[sp,#0x8c]
        0x00000f06:    21df        .!      MOVS     r1,#0xdf
        0x00000f08:    9823        #.      LDR      r0,[sp,#0x8c]
        0x00000f0a:    4008        .@      ANDS     r0,r0,r1
        0x00000f0c:    9023        #.      STR      r0,[sp,#0x8c]
        0x00000f0e:    2002        .       MOVS     r0,#2
        0x00000f10:    9923        #.      LDR      r1,[sp,#0x8c]
        0x00000f12:    f7ffffce    ....    BL       LT_WriteI2C_Byte ; 0xeb2
        0x00000f16:    2120         !      MOVS     r1,#0x20
        0x00000f18:    9823        #.      LDR      r0,[sp,#0x8c]
        0x00000f1a:    4308        .C      ORRS     r0,r0,r1
        0x00000f1c:    9023        #.      STR      r0,[sp,#0x8c]
        0x00000f1e:    2002        .       MOVS     r0,#2
        0x00000f20:    9923        #.      LDR      r1,[sp,#0x8c]
        0x00000f22:    f7ffffc6    ....    BL       LT_WriteI2C_Byte ; 0xeb2
        0x00000f26:    2180        .!      MOVS     r1,#0x80
        0x00000f28:    20ff        .       MOVS     r0,#0xff
        0x00000f2a:    f7ffffc2    ....    BL       LT_WriteI2C_Byte ; 0xeb2
        0x00000f2e:    2186        .!      MOVS     r1,#0x86
        0x00000f30:    205a        Z       MOVS     r0,#0x5a
        0x00000f32:    f7ffffbe    ....    BL       LT_WriteI2C_Byte ; 0xeb2
        0x00000f36:    2182        .!      MOVS     r1,#0x82
        0x00000f38:    205a        Z       MOVS     r0,#0x5a
        0x00000f3a:    f7ffffba    ....    BL       LT_WriteI2C_Byte ; 0xeb2
        0x00000f3e:    2403        .$      MOVS     r4,#3
        0x00000f40:    0364        d.      LSLS     r4,r4,#13
        0x00000f42:    2000        .       MOVS     r0,#0
        0x00000f44:    9022        ".      STR      r0,[sp,#0x88]
        0x00000f46:    20ff        .       MOVS     r0,#0xff
        0x00000f48:    0400        ..      LSLS     r0,r0,#16
        0x00000f4a:    4020         @      ANDS     r0,r0,r4
        0x00000f4c:    1401        ..      ASRS     r1,r0,#16
        0x00000f4e:    a820         .      ADD      r0,sp,#0x80
        0x00000f50:    7201        .r      STRB     r1,[r0,#8]
        0x00000f52:    20ff        .       MOVS     r0,#0xff
        0x00000f54:    0200        ..      LSLS     r0,r0,#8
        0x00000f56:    4020         @      ANDS     r0,r0,r4
        0x00000f58:    1201        ..      ASRS     r1,r0,#8
        0x00000f5a:    a820         .      ADD      r0,sp,#0x80
        0x00000f5c:    7241        Ar      STRB     r1,[r0,#9]
        0x00000f5e:    7284        .r      STRB     r4,[r0,#0xa]
        0x00000f60:    2011        .       MOVS     r0,#0x11
        0x00000f62:    9021        !.      STR      r0,[sp,#0x84]
        0x00000f64:    9821        !.      LDR      r0,[sp,#0x84]
        0x00000f66:    1c40        @.      ADDS     r0,r0,#1
        0x00000f68:    9021        !.      STR      r0,[sp,#0x84]
        0x00000f6a:    2500        .%      MOVS     r5,#0
        0x00000f6c:    e05a        Z.      B        0x1024 ; ReadKey + 328
        0x00000f6e:    216f        o!      MOVS     r1,#0x6f
        0x00000f70:    205e        ^       MOVS     r0,#0x5e
        0x00000f72:    f7ffff9e    ....    BL       LT_WriteI2C_Byte ; 0xeb2
        0x00000f76:    21a2        .!      MOVS     r1,#0xa2
        0x00000f78:    205a        Z       MOVS     r0,#0x5a
        0x00000f7a:    f7ffff9a    ....    BL       LT_WriteI2C_Byte ; 0xeb2
        0x00000f7e:    2182        .!      MOVS     r1,#0x82
        0x00000f80:    205a        Z       MOVS     r0,#0x5a
        0x00000f82:    f7ffff96    ....    BL       LT_WriteI2C_Byte ; 0xeb2
        0x00000f86:    a820         .      ADD      r0,sp,#0x80
        0x00000f88:    7a01        .z      LDRB     r1,[r0,#8]
        0x00000f8a:    205b        [       MOVS     r0,#0x5b
        0x00000f8c:    f7ffff91    ....    BL       LT_WriteI2C_Byte ; 0xeb2
        0x00000f90:    a820         .      ADD      r0,sp,#0x80
        0x00000f92:    7a41        Az      LDRB     r1,[r0,#9]
        0x00000f94:    205c        \       MOVS     r0,#0x5c
        0x00000f96:    f7ffff8c    ....    BL       LT_WriteI2C_Byte ; 0xeb2
        0x00000f9a:    a820         .      ADD      r0,sp,#0x80
        0x00000f9c:    7a81        .z      LDRB     r1,[r0,#0xa]
        0x00000f9e:    205d        ]       MOVS     r0,#0x5d
        0x00000fa0:    f7ffff87    ....    BL       LT_WriteI2C_Byte ; 0xeb2
        0x00000fa4:    2192        .!      MOVS     r1,#0x92
        0x00000fa6:    205a        Z       MOVS     r0,#0x5a
        0x00000fa8:    f7ffff83    ....    BL       LT_WriteI2C_Byte ; 0xeb2
        0x00000fac:    2182        .!      MOVS     r1,#0x82
        0x00000fae:    205a        Z       MOVS     r0,#0x5a
        0x00000fb0:    f7ffff7f    ....    BL       LT_WriteI2C_Byte ; 0xeb2
        0x00000fb4:    2101        .!      MOVS     r1,#1
        0x00000fb6:    2058        X       MOVS     r0,#0x58
        0x00000fb8:    f7ffff7b    ..{.    BL       LT_WriteI2C_Byte ; 0xeb2
        0x00000fbc:    2610        .&      MOVS     r6,#0x10
        0x00000fbe:    0128        (.      LSLS     r0,r5,#4
        0x00000fc0:    21ff        .!      MOVS     r1,#0xff
        0x00000fc2:    311f        .1      ADDS     r1,r1,#0x1f
        0x00000fc4:    1a08        ..      SUBS     r0,r1,r0
        0x00000fc6:    2810        .(      CMP      r0,#0x10
        0x00000fc8:    da05        ..      BGE      0xfd6 ; ReadKey + 250
        0x00000fca:    0128        (.      LSLS     r0,r5,#4
        0x00000fcc:    1a0e        ..      SUBS     r6,r1,r0
        0x00000fce:    4631        1F      MOV      r1,r6
        0x00000fd0:    a01a        ..      ADR      r0,{pc}+0x6c ; 0x103c
        0x00000fd2:    f7fff903    ....    BL       __2printf ; 0x1dc
        0x00000fd6:    2180        .!      MOVS     r1,#0x80
        0x00000fd8:    a801        ..      ADD      r0,sp,#4
        0x00000fda:    f7fffa1d    ....    BL       __aeabi_memclr4 ; 0x418
        0x00000fde:    b2b2        ..      UXTH     r2,r6
        0x00000fe0:    a901        ..      ADD      r1,sp,#4
        0x00000fe2:    205f        _       MOVS     r0,#0x5f
        0x00000fe4:    f7ffff55    ..U.    BL       LT_ReadI2C_ByteN ; 0xe92
        0x00000fe8:    9024        $.      STR      r0,[sp,#0x90]
        0x00000fea:    2700        .'      MOVS     r7,#0
        0x00000fec:    e009        ..      B        0x1002 ; ReadKey + 294
        0x00000fee:    a901        ..      ADD      r1,sp,#4
        0x00000ff0:    5dca        .]      LDRB     r2,[r1,r7]
        0x00000ff2:    0129        ).      LSLS     r1,r5,#4
        0x00000ff4:    4b16        .K      LDR      r3,[pc,#88] ; [0x1050] = 0x20001997
        0x00000ff6:    18c9        ..      ADDS     r1,r1,r3
        0x00000ff8:    19c8        ..      ADDS     r0,r1,r7
        0x00000ffa:    2101        .!      MOVS     r1,#1
        0x00000ffc:    f7fff9e5    ....    BL       __aeabi_memset ; 0x3ca
        0x00001000:    1c7f        ..      ADDS     r7,r7,#1
        0x00001002:    42b7        .B      CMP      r7,r6
        0x00001004:    dbf3        ..      BLT      0xfee ; ReadKey + 274
        0x00001006:    19a4        ..      ADDS     r4,r4,r6
        0x00001008:    20ff        .       MOVS     r0,#0xff
        0x0000100a:    0400        ..      LSLS     r0,r0,#16
        0x0000100c:    4020         @      ANDS     r0,r0,r4
        0x0000100e:    1401        ..      ASRS     r1,r0,#16
        0x00001010:    a820         .      ADD      r0,sp,#0x80
        0x00001012:    7201        .r      STRB     r1,[r0,#8]
        0x00001014:    20ff        .       MOVS     r0,#0xff
        0x00001016:    0200        ..      LSLS     r0,r0,#8
        0x00001018:    4020         @      ANDS     r0,r0,r4
        0x0000101a:    1201        ..      ASRS     r1,r0,#8
        0x0000101c:    a820         .      ADD      r0,sp,#0x80
        0x0000101e:    7241        Ar      STRB     r1,[r0,#9]
        0x00001020:    7284        .r      STRB     r4,[r0,#0xa]
        0x00001022:    1c6d        m.      ADDS     r5,r5,#1
        0x00001024:    9821        !.      LDR      r0,[sp,#0x84]
        0x00001026:    4285        .B      CMP      r5,r0
        0x00001028:    dba1        ..      BLT      0xf6e ; ReadKey + 146
        0x0000102a:    b025        %.      ADD      sp,sp,#0x94
        0x0000102c:    bdf0        ..      POP      {r4-r7,pc}
    $d
        0x0000102e:    0000        ..      DCW    0
        0x00001030:    64616552    Read    DCD    1684104530
        0x00001034:    2079654b    Key     DCD    544826699
        0x00001038:    0000000a    ....    DCD    10
        0x0000103c:    6761506e    nPag    DCD    1734430830
        0x00001040:    61655265    eRea    DCD    1634030181
        0x00001044:    6e654c64    dLen    DCD    1852132452
        0x00001048:    25203d20     = %    DCD    622869792
        0x0000104c:    000a2064    d ..    DCD    663652
        0x00001050:    20001997    ...     DCD    536877463
    $t
    i.Read_Ecx335af_reg
    Read_Ecx335af_reg
        0x00001054:    b570        p.      PUSH     {r4-r6,lr}
        0x00001056:    2400        .$      MOVS     r4,#0
        0x00001058:    bf00        ..      NOP      
        0x0000105a:    e00c        ..      B        0x1076 ; Read_Ecx335af_reg + 34
        0x0000105c:    b2e0        ..      UXTB     r0,r4
        0x0000105e:    f000f90b    ....    BL       Spi_ReadReg_1 ; 0x1278
        0x00001062:    4605        .F      MOV      r5,r0
        0x00001064:    2014        .       MOVS     r0,#0x14
        0x00001066:    f000fd9a    ....    BL       delay_ms ; 0x1b9e
        0x0000106a:    462a        *F      MOV      r2,r5
        0x0000106c:    4621        !F      MOV      r1,r4
        0x0000106e:    a00c        ..      ADR      r0,{pc}+0x32 ; 0x10a0
        0x00001070:    f7fff8b4    ....    BL       __2printf ; 0x1dc
        0x00001074:    1c64        d.      ADDS     r4,r4,#1
        0x00001076:    2c82        .,      CMP      r4,#0x82
        0x00001078:    d3f0        ..      BCC      0x105c ; Read_Ecx335af_reg + 8
        0x0000107a:    2400        .$      MOVS     r4,#0
        0x0000107c:    e00c        ..      B        0x1098 ; Read_Ecx335af_reg + 68
        0x0000107e:    b2e0        ..      UXTB     r0,r4
        0x00001080:    f000f98e    ....    BL       Spi_ReadReg_2 ; 0x13a0
        0x00001084:    4605        .F      MOV      r5,r0
        0x00001086:    2014        .       MOVS     r0,#0x14
        0x00001088:    f000fd89    ....    BL       delay_ms ; 0x1b9e
        0x0000108c:    462a        *F      MOV      r2,r5
        0x0000108e:    4621        !F      MOV      r1,r4
        0x00001090:    a00a        ..      ADR      r0,{pc}+0x2c ; 0x10bc
        0x00001092:    f7fff8a3    ....    BL       __2printf ; 0x1dc
        0x00001096:    1c64        d.      ADDS     r4,r4,#1
        0x00001098:    2c82        .,      CMP      r4,#0x82
        0x0000109a:    d3f0        ..      BCC      0x107e ; Read_Ecx335af_reg + 42
        0x0000109c:    bd70        p.      POP      {r4-r6,pc}
    $d
        0x0000109e:    0000        ..      DCW    0
        0x000010a0:    2044434c    LCD     DCD    541344588
        0x000010a4:    72202031    1  r    DCD    1914708017
        0x000010a8:    3d206765    eg =    DCD    1025533797
        0x000010ac:    2c782520     %x,    DCD    746071328
        0x000010b0:    6c617620     val    DCD    1818326560
        0x000010b4:    25203d20     = %    DCD    622869792
        0x000010b8:    00000a78    x...    DCD    2680
        0x000010bc:    2044434c    LCD     DCD    541344588
        0x000010c0:    72202032    2  r    DCD    1914708018
        0x000010c4:    3d206765    eg =    DCD    1025533797
        0x000010c8:    2c782520     %x,    DCD    746071328
        0x000010cc:    6c617620     val    DCD    1818326560
        0x000010d0:    25203d20     = %    DCD    622869792
        0x000010d4:    00000a78    x...    DCD    2680
    $t
    i.SPI_Open
    SPI_Open
        0x000010d8:    b5f8        ..      PUSH     {r3-r7,lr}
        0x000010da:    4605        .F      MOV      r5,r0
        0x000010dc:    460e        .F      MOV      r6,r1
        0x000010de:    4617        .F      MOV      r7,r2
        0x000010e0:    461c        .F      MOV      r4,r3
        0x000010e2:    2c20         ,      CMP      r4,#0x20
        0x000010e4:    d100        ..      BNE      0x10e8 ; SPI_Open + 16
        0x000010e6:    2400        .$      MOVS     r4,#0
        0x000010e8:    00e0        ..      LSLS     r0,r4,#3
        0x000010ea:    4330        0C      ORRS     r0,r0,r6
        0x000010ec:    4338        8C      ORRS     r0,r0,r7
        0x000010ee:    6028        (`      STR      r0,[r5,#0]
        0x000010f0:    4628        (F      MOV      r0,r5
        0x000010f2:    9906        ..      LDR      r1,[sp,#0x18]
        0x000010f4:    f000f802    ....    BL       SPI_SetBusClock ; 0x10fc
        0x000010f8:    bdf8        ..      POP      {r3-r7,pc}
        0x000010fa:    0000        ..      MOVS     r0,r0
    i.SPI_SetBusClock
    SPI_SetBusClock
        0x000010fc:    b5f8        ..      PUSH     {r3-r7,lr}
        0x000010fe:    4605        .F      MOV      r5,r0
        0x00001100:    460e        .F      MOV      r6,r1
        0x00001102:    2700        .'      MOVS     r7,#0
        0x00001104:    4825        %H      LDR      r0,[pc,#148] ; [0x119c] = 0x40030000
        0x00001106:    4285        .B      CMP      r5,r0
        0x00001108:    d10e        ..      BNE      0x1128 ; SPI_SetBusClock + 44
        0x0000110a:    4825        %H      LDR      r0,[pc,#148] ; [0x11a0] = 0x50000200
        0x0000110c:    6980        .i      LDR      r0,[r0,#0x18]
        0x0000110e:    2101        .!      MOVS     r1,#1
        0x00001110:    0509        ..      LSLS     r1,r1,#20
        0x00001112:    4008        .@      ANDS     r0,r0,r1
        0x00001114:    4288        .B      CMP      r0,r1
        0x00001116:    d103        ..      BNE      0x1120 ; SPI_SetBusClock + 36
        0x00001118:    f7fffc12    ....    BL       CLK_GetHCLKFreq ; 0x940
        0x0000111c:    4604        .F      MOV      r4,r0
        0x0000111e:    e023        #.      B        0x1168 ; SPI_SetBusClock + 108
        0x00001120:    f7fffc16    ....    BL       CLK_GetPLLClockFreq ; 0x950
        0x00001124:    4604        .F      MOV      r4,r0
        0x00001126:    e01f        ..      B        0x1168 ; SPI_SetBusClock + 108
        0x00001128:    481e        .H      LDR      r0,[pc,#120] ; [0x11a4] = 0x40130000
        0x0000112a:    4285        .B      CMP      r5,r0
        0x0000112c:    d10e        ..      BNE      0x114c ; SPI_SetBusClock + 80
        0x0000112e:    481c        .H      LDR      r0,[pc,#112] ; [0x11a0] = 0x50000200
        0x00001130:    6980        .i      LDR      r0,[r0,#0x18]
        0x00001132:    2101        .!      MOVS     r1,#1
        0x00001134:    0549        I.      LSLS     r1,r1,#21
        0x00001136:    4008        .@      ANDS     r0,r0,r1
        0x00001138:    4288        .B      CMP      r0,r1
        0x0000113a:    d103        ..      BNE      0x1144 ; SPI_SetBusClock + 72
        0x0000113c:    f7fffc00    ....    BL       CLK_GetHCLKFreq ; 0x940
        0x00001140:    4604        .F      MOV      r4,r0
        0x00001142:    e011        ..      B        0x1168 ; SPI_SetBusClock + 108
        0x00001144:    f7fffc04    ....    BL       CLK_GetPLLClockFreq ; 0x950
        0x00001148:    4604        .F      MOV      r4,r0
        0x0000114a:    e00d        ..      B        0x1168 ; SPI_SetBusClock + 108
        0x0000114c:    4814        .H      LDR      r0,[pc,#80] ; [0x11a0] = 0x50000200
        0x0000114e:    6980        .i      LDR      r0,[r0,#0x18]
        0x00001150:    2101        .!      MOVS     r1,#1
        0x00001152:    0589        ..      LSLS     r1,r1,#22
        0x00001154:    4008        .@      ANDS     r0,r0,r1
        0x00001156:    4288        .B      CMP      r0,r1
        0x00001158:    d103        ..      BNE      0x1162 ; SPI_SetBusClock + 102
        0x0000115a:    f7fffbf1    ....    BL       CLK_GetHCLKFreq ; 0x940
        0x0000115e:    4604        .F      MOV      r4,r0
        0x00001160:    e002        ..      B        0x1168 ; SPI_SetBusClock + 108
        0x00001162:    f7fffbf5    ....    BL       CLK_GetPLLClockFreq ; 0x950
        0x00001166:    4604        .F      MOV      r4,r0
        0x00001168:    42a6        .B      CMP      r6,r4
        0x0000116a:    d900        ..      BLS      0x116e ; SPI_SetBusClock + 114
        0x0000116c:    4626        &F      MOV      r6,r4
        0x0000116e:    2e00        ..      CMP      r6,#0
        0x00001170:    d008        ..      BEQ      0x1184 ; SPI_SetBusClock + 136
        0x00001172:    4631        1F      MOV      r1,r6
        0x00001174:    4620         F      MOV      r0,r4
        0x00001176:    f7fff951    ..Q.    BL       __aeabi_uidiv ; 0x41c
        0x0000117a:    1e47        G.      SUBS     r7,r0,#1
        0x0000117c:    2fff        ./      CMP      r7,#0xff
        0x0000117e:    d902        ..      BLS      0x1186 ; SPI_SetBusClock + 138
        0x00001180:    27ff        .'      MOVS     r7,#0xff
        0x00001182:    e000        ..      B        0x1186 ; SPI_SetBusClock + 138
        0x00001184:    2700        .'      MOVS     r7,#0
        0x00001186:    68a8        .h      LDR      r0,[r5,#8]
        0x00001188:    0a00        ..      LSRS     r0,r0,#8
        0x0000118a:    0200        ..      LSLS     r0,r0,#8
        0x0000118c:    4338        8C      ORRS     r0,r0,r7
        0x0000118e:    60a8        .`      STR      r0,[r5,#8]
        0x00001190:    1c79        y.      ADDS     r1,r7,#1
        0x00001192:    4620         F      MOV      r0,r4
        0x00001194:    f7fff942    ..B.    BL       __aeabi_uidiv ; 0x41c
        0x00001198:    bdf8        ..      POP      {r3-r7,pc}
    $d
        0x0000119a:    0000        ..      DCW    0
        0x0000119c:    40030000    ...@    DCD    1073938432
        0x000011a0:    50000200    ...P    DCD    1342177792
        0x000011a4:    40130000    ...@    DCD    1074987008
    $t
    i.SYS_Init
    SYS_Init
        0x000011a8:    b510        ..      PUSH     {r4,lr}
        0x000011aa:    bf00        ..      NOP      
        0x000011ac:    e006        ..      B        0x11bc ; SYS_Init + 20
        0x000011ae:    2059        Y       MOVS     r0,#0x59
        0x000011b0:    491d        .I      LDR      r1,[pc,#116] ; [0x1228] = 0x50000100
        0x000011b2:    6008        .`      STR      r0,[r1,#0]
        0x000011b4:    2016        .       MOVS     r0,#0x16
        0x000011b6:    6008        .`      STR      r0,[r1,#0]
        0x000011b8:    2088        .       MOVS     r0,#0x88
        0x000011ba:    6008        .`      STR      r0,[r1,#0]
        0x000011bc:    481a        .H      LDR      r0,[pc,#104] ; [0x1228] = 0x50000100
        0x000011be:    6800        .h      LDR      r0,[r0,#0]
        0x000011c0:    2801        .(      CMP      r0,#1
        0x000011c2:    d1f4        ..      BNE      0x11ae ; SYS_Init + 6
        0x000011c4:    bf00        ..      NOP      
        0x000011c6:    2004        .       MOVS     r0,#4
        0x000011c8:    f7fffb94    ....    BL       CLK_EnableXtalRC ; 0x8f4
        0x000011cc:    2010        .       MOVS     r0,#0x10
        0x000011ce:    f7fffccf    ....    BL       CLK_WaitClockReady ; 0xb70
        0x000011d2:    4816        .H      LDR      r0,[pc,#88] ; [0x122c] = 0x280de80
        0x000011d4:    f7fffbfc    ....    BL       CLK_SetCoreClock ; 0x9d0
        0x000011d8:    4815        .H      LDR      r0,[pc,#84] ; [0x1230] = 0xa6003d10
        0x000011da:    f7fffb09    ....    BL       CLK_EnableModuleClock ; 0x7f0
        0x000011de:    2200        ."      MOVS     r2,#0
        0x000011e0:    2103        .!      MOVS     r1,#3
        0x000011e2:    4813        .H      LDR      r0,[pc,#76] ; [0x1230] = 0xa6003d10
        0x000011e4:    f7fffc78    ..x.    BL       CLK_SetModuleClock ; 0xad8
        0x000011e8:    4811        .H      LDR      r0,[pc,#68] ; [0x1230] = 0xa6003d10
        0x000011ea:    f7fffb01    ....    BL       CLK_EnableModuleClock ; 0x7f0
        0x000011ee:    2210        ."      MOVS     r2,#0x10
        0x000011f0:    2100        .!      MOVS     r1,#0
        0x000011f2:    4810        .H      LDR      r0,[pc,#64] ; [0x1234] = 0xa0003c9b
        0x000011f4:    f7fffc70    ..p.    BL       CLK_SetModuleClock ; 0xad8
        0x000011f8:    480e        .H      LDR      r0,[pc,#56] ; [0x1234] = 0xa0003c9b
        0x000011fa:    f7fffaf9    ....    BL       CLK_EnableModuleClock ; 0x7f0
        0x000011fe:    f000fa33    ..3.    BL       SystemCoreClockUpdate ; 0x1668
        0x00001202:    2005        .       MOVS     r0,#5
        0x00001204:    0700        ..      LSLS     r0,r0,#28
        0x00001206:    6b40        @k      LDR      r0,[r0,#0x34]
        0x00001208:    2177        w!      MOVS     r1,#0x77
        0x0000120a:    0609        ..      LSLS     r1,r1,#24
        0x0000120c:    4388        .C      BICS     r0,r0,r1
        0x0000120e:    2105        .!      MOVS     r1,#5
        0x00001210:    0709        ..      LSLS     r1,r1,#28
        0x00001212:    6348        Hc      STR      r0,[r1,#0x34]
        0x00001214:    2033        3       MOVS     r0,#0x33
        0x00001216:    0640        @.      LSLS     r0,r0,#25
        0x00001218:    6348        Hc      STR      r0,[r1,#0x34]
        0x0000121a:    bf00        ..      NOP      
        0x0000121c:    2000        .       MOVS     r0,#0
        0x0000121e:    4902        .I      LDR      r1,[pc,#8] ; [0x1228] = 0x50000100
        0x00001220:    6008        .`      STR      r0,[r1,#0]
        0x00001222:    bf00        ..      NOP      
        0x00001224:    bd10        ..      POP      {r4,pc}
    $d
        0x00001226:    0000        ..      DCW    0
        0x00001228:    50000100    ...P    DCD    1342177536
        0x0000122c:    0280de80    ....    DCD    42000000
        0x00001230:    a6003d10    .=..    DCD    2785033488
        0x00001234:    a0003c9b    .<..    DCD    2684370075
    $t
    i.SendChar
    SendChar
        0x00001238:    b500        ..      PUSH     {lr}
        0x0000123a:    4603        .F      MOV      r3,r0
        0x0000123c:    4618        .F      MOV      r0,r3
        0x0000123e:    f000f801    ....    BL       SendChar_ToUART ; 0x1244
        0x00001242:    bd00        ..      POP      {pc}
    i.SendChar_ToUART
    SendChar_ToUART
        0x00001244:    bf00        ..      NOP      
        0x00001246:    490b        .I      LDR      r1,[pc,#44] ; [0x1274] = 0x40050000
        0x00001248:    6989        .i      LDR      r1,[r1,#0x18]
        0x0000124a:    2201        ."      MOVS     r2,#1
        0x0000124c:    0292        ..      LSLS     r2,r2,#10
        0x0000124e:    4011        .@      ANDS     r1,r1,r2
        0x00001250:    2900        .)      CMP      r1,#0
        0x00001252:    d1f8        ..      BNE      0x1246 ; SendChar_ToUART + 2
        0x00001254:    4907        .I      LDR      r1,[pc,#28] ; [0x1274] = 0x40050000
        0x00001256:    6008        .`      STR      r0,[r1,#0]
        0x00001258:    280a        .(      CMP      r0,#0xa
        0x0000125a:    d10a        ..      BNE      0x1272 ; SendChar_ToUART + 46
        0x0000125c:    bf00        ..      NOP      
        0x0000125e:    4905        .I      LDR      r1,[pc,#20] ; [0x1274] = 0x40050000
        0x00001260:    6989        .i      LDR      r1,[r1,#0x18]
        0x00001262:    2201        ."      MOVS     r2,#1
        0x00001264:    0292        ..      LSLS     r2,r2,#10
        0x00001266:    4011        .@      ANDS     r1,r1,r2
        0x00001268:    2900        .)      CMP      r1,#0
        0x0000126a:    d1f8        ..      BNE      0x125e ; SendChar_ToUART + 26
        0x0000126c:    210d        .!      MOVS     r1,#0xd
        0x0000126e:    4a01        .J      LDR      r2,[pc,#4] ; [0x1274] = 0x40050000
        0x00001270:    6011        .`      STR      r1,[r2,#0]
        0x00001272:    4770        pG      BX       lr
    $d
        0x00001274:    40050000    ...@    DCD    1074069504
    $t
    i.Spi_ReadReg_1
    Spi_ReadReg_1
        0x00001278:    b570        p.      PUSH     {r4-r6,lr}
        0x0000127a:    4604        .F      MOV      r4,r0
        0x0000127c:    2000        .       MOVS     r0,#0
        0x0000127e:    4946        FI      LDR      r1,[pc,#280] ; [0x1398] = 0x50004200
        0x00001280:    6208        .b      STR      r0,[r1,#0x20]
        0x00001282:    2001        .       MOVS     r0,#1
        0x00001284:    4944        DI      LDR      r1,[pc,#272] ; [0x1398] = 0x50004200
        0x00001286:    3140        @1      ADDS     r1,r1,#0x40
        0x00001288:    6108        .a      STR      r0,[r1,#0x10]
        0x0000128a:    2080        .       MOVS     r0,#0x80
        0x0000128c:    4943        CI      LDR      r1,[pc,#268] ; [0x139c] = 0x400d0000
        0x0000128e:    6208        .b      STR      r0,[r1,#0x20]
        0x00001290:    4608        .F      MOV      r0,r1
        0x00001292:    6800        .h      LDR      r0,[r0,#0]
        0x00001294:    2101        .!      MOVS     r1,#1
        0x00001296:    4308        .C      ORRS     r0,r0,r1
        0x00001298:    4940        @I      LDR      r1,[pc,#256] ; [0x139c] = 0x400d0000
        0x0000129a:    6008        .`      STR      r0,[r1,#0]
        0x0000129c:    bf00        ..      NOP      
        0x0000129e:    483f        ?H      LDR      r0,[pc,#252] ; [0x139c] = 0x400d0000
        0x000012a0:    6800        .h      LDR      r0,[r0,#0]
        0x000012a2:    07c0        ..      LSLS     r0,r0,#31
        0x000012a4:    0fc0        ..      LSRS     r0,r0,#31
        0x000012a6:    2101        .!      MOVS     r1,#1
        0x000012a8:    4048        H@      EORS     r0,r0,r1
        0x000012aa:    4048        H@      EORS     r0,r0,r1
        0x000012ac:    2800        .(      CMP      r0,#0
        0x000012ae:    d1f6        ..      BNE      0x129e ; Spi_ReadReg_1 + 38
        0x000012b0:    2001        .       MOVS     r0,#1
        0x000012b2:    493a        :I      LDR      r1,[pc,#232] ; [0x139c] = 0x400d0000
        0x000012b4:    6208        .b      STR      r0,[r1,#0x20]
        0x000012b6:    4608        .F      MOV      r0,r1
        0x000012b8:    6800        .h      LDR      r0,[r0,#0]
        0x000012ba:    2101        .!      MOVS     r1,#1
        0x000012bc:    4308        .C      ORRS     r0,r0,r1
        0x000012be:    4937        7I      LDR      r1,[pc,#220] ; [0x139c] = 0x400d0000
        0x000012c0:    6008        .`      STR      r0,[r1,#0]
        0x000012c2:    bf00        ..      NOP      
        0x000012c4:    4835        5H      LDR      r0,[pc,#212] ; [0x139c] = 0x400d0000
        0x000012c6:    6800        .h      LDR      r0,[r0,#0]
        0x000012c8:    07c0        ..      LSLS     r0,r0,#31
        0x000012ca:    0fc0        ..      LSRS     r0,r0,#31
        0x000012cc:    2101        .!      MOVS     r1,#1
        0x000012ce:    4048        H@      EORS     r0,r0,r1
        0x000012d0:    4048        H@      EORS     r0,r0,r1
        0x000012d2:    2800        .(      CMP      r0,#0
        0x000012d4:    d1f6        ..      BNE      0x12c4 ; Spi_ReadReg_1 + 76
        0x000012d6:    2001        .       MOVS     r0,#1
        0x000012d8:    492f        /I      LDR      r1,[pc,#188] ; [0x1398] = 0x50004200
        0x000012da:    6208        .b      STR      r0,[r1,#0x20]
        0x000012dc:    f000fc5f    .._.    BL       delay_ms ; 0x1b9e
        0x000012e0:    2000        .       MOVS     r0,#0
        0x000012e2:    492d        -I      LDR      r1,[pc,#180] ; [0x1398] = 0x50004200
        0x000012e4:    6208        .b      STR      r0,[r1,#0x20]
        0x000012e6:    2081        .       MOVS     r0,#0x81
        0x000012e8:    492c        ,I      LDR      r1,[pc,#176] ; [0x139c] = 0x400d0000
        0x000012ea:    6208        .b      STR      r0,[r1,#0x20]
        0x000012ec:    4608        .F      MOV      r0,r1
        0x000012ee:    6800        .h      LDR      r0,[r0,#0]
        0x000012f0:    2101        .!      MOVS     r1,#1
        0x000012f2:    4308        .C      ORRS     r0,r0,r1
        0x000012f4:    4929        )I      LDR      r1,[pc,#164] ; [0x139c] = 0x400d0000
        0x000012f6:    6008        .`      STR      r0,[r1,#0]
        0x000012f8:    bf00        ..      NOP      
        0x000012fa:    4828        (H      LDR      r0,[pc,#160] ; [0x139c] = 0x400d0000
        0x000012fc:    6800        .h      LDR      r0,[r0,#0]
        0x000012fe:    07c0        ..      LSLS     r0,r0,#31
        0x00001300:    0fc0        ..      LSRS     r0,r0,#31
        0x00001302:    2101        .!      MOVS     r1,#1
        0x00001304:    4048        H@      EORS     r0,r0,r1
        0x00001306:    4048        H@      EORS     r0,r0,r1
        0x00001308:    2800        .(      CMP      r0,#0
        0x0000130a:    d1f6        ..      BNE      0x12fa ; Spi_ReadReg_1 + 130
        0x0000130c:    4823        #H      LDR      r0,[pc,#140] ; [0x139c] = 0x400d0000
        0x0000130e:    6204        .b      STR      r4,[r0,#0x20]
        0x00001310:    6800        .h      LDR      r0,[r0,#0]
        0x00001312:    4308        .C      ORRS     r0,r0,r1
        0x00001314:    4921        !I      LDR      r1,[pc,#132] ; [0x139c] = 0x400d0000
        0x00001316:    6008        .`      STR      r0,[r1,#0]
        0x00001318:    bf00        ..      NOP      
        0x0000131a:    4820         H      LDR      r0,[pc,#128] ; [0x139c] = 0x400d0000
        0x0000131c:    6800        .h      LDR      r0,[r0,#0]
        0x0000131e:    07c0        ..      LSLS     r0,r0,#31
        0x00001320:    0fc0        ..      LSRS     r0,r0,#31
        0x00001322:    2101        .!      MOVS     r1,#1
        0x00001324:    4048        H@      EORS     r0,r0,r1
        0x00001326:    4048        H@      EORS     r0,r0,r1
        0x00001328:    2800        .(      CMP      r0,#0
        0x0000132a:    d1f6        ..      BNE      0x131a ; Spi_ReadReg_1 + 162
        0x0000132c:    2001        .       MOVS     r0,#1
        0x0000132e:    491a        .I      LDR      r1,[pc,#104] ; [0x1398] = 0x50004200
        0x00001330:    6208        .b      STR      r0,[r1,#0x20]
        0x00001332:    f000fc34    ..4.    BL       delay_ms ; 0x1b9e
        0x00001336:    2000        .       MOVS     r0,#0
        0x00001338:    4917        .I      LDR      r1,[pc,#92] ; [0x1398] = 0x50004200
        0x0000133a:    6208        .b      STR      r0,[r1,#0x20]
        0x0000133c:    2081        .       MOVS     r0,#0x81
        0x0000133e:    4917        .I      LDR      r1,[pc,#92] ; [0x139c] = 0x400d0000
        0x00001340:    6208        .b      STR      r0,[r1,#0x20]
        0x00001342:    4608        .F      MOV      r0,r1
        0x00001344:    6800        .h      LDR      r0,[r0,#0]
        0x00001346:    2101        .!      MOVS     r1,#1
        0x00001348:    4308        .C      ORRS     r0,r0,r1
        0x0000134a:    4914        .I      LDR      r1,[pc,#80] ; [0x139c] = 0x400d0000
        0x0000134c:    6008        .`      STR      r0,[r1,#0]
        0x0000134e:    bf00        ..      NOP      
        0x00001350:    4812        .H      LDR      r0,[pc,#72] ; [0x139c] = 0x400d0000
        0x00001352:    6800        .h      LDR      r0,[r0,#0]
        0x00001354:    07c0        ..      LSLS     r0,r0,#31
        0x00001356:    0fc0        ..      LSRS     r0,r0,#31
        0x00001358:    2101        .!      MOVS     r1,#1
        0x0000135a:    4048        H@      EORS     r0,r0,r1
        0x0000135c:    4048        H@      EORS     r0,r0,r1
        0x0000135e:    2800        .(      CMP      r0,#0
        0x00001360:    d1f6        ..      BNE      0x1350 ; Spi_ReadReg_1 + 216
        0x00001362:    20aa        .       MOVS     r0,#0xaa
        0x00001364:    490d        .I      LDR      r1,[pc,#52] ; [0x139c] = 0x400d0000
        0x00001366:    6208        .b      STR      r0,[r1,#0x20]
        0x00001368:    4608        .F      MOV      r0,r1
        0x0000136a:    6800        .h      LDR      r0,[r0,#0]
        0x0000136c:    2101        .!      MOVS     r1,#1
        0x0000136e:    4308        .C      ORRS     r0,r0,r1
        0x00001370:    490a        .I      LDR      r1,[pc,#40] ; [0x139c] = 0x400d0000
        0x00001372:    6008        .`      STR      r0,[r1,#0]
        0x00001374:    bf00        ..      NOP      
        0x00001376:    4809        .H      LDR      r0,[pc,#36] ; [0x139c] = 0x400d0000
        0x00001378:    6800        .h      LDR      r0,[r0,#0]
        0x0000137a:    07c0        ..      LSLS     r0,r0,#31
        0x0000137c:    0fc0        ..      LSRS     r0,r0,#31
        0x0000137e:    2101        .!      MOVS     r1,#1
        0x00001380:    4048        H@      EORS     r0,r0,r1
        0x00001382:    4048        H@      EORS     r0,r0,r1
        0x00001384:    2800        .(      CMP      r0,#0
        0x00001386:    d1f6        ..      BNE      0x1376 ; Spi_ReadReg_1 + 254
        0x00001388:    2001        .       MOVS     r0,#1
        0x0000138a:    4903        .I      LDR      r1,[pc,#12] ; [0x1398] = 0x50004200
        0x0000138c:    6208        .b      STR      r0,[r1,#0x20]
        0x0000138e:    4803        .H      LDR      r0,[pc,#12] ; [0x139c] = 0x400d0000
        0x00001390:    6900        .i      LDR      r0,[r0,#0x10]
        0x00001392:    b2c5        ..      UXTB     r5,r0
        0x00001394:    4628        (F      MOV      r0,r5
        0x00001396:    bd70        p.      POP      {r4-r6,pc}
    $d
        0x00001398:    50004200    .B.P    DCD    1342194176
        0x0000139c:    400d0000    ...@    DCD    1074593792
    $t
    i.Spi_ReadReg_2
    Spi_ReadReg_2
        0x000013a0:    b570        p.      PUSH     {r4-r6,lr}
        0x000013a2:    4604        .F      MOV      r4,r0
        0x000013a4:    2001        .       MOVS     r0,#1
        0x000013a6:    4949        II      LDR      r1,[pc,#292] ; [0x14cc] = 0x50004200
        0x000013a8:    6208        .b      STR      r0,[r1,#0x20]
        0x000013aa:    2000        .       MOVS     r0,#0
        0x000013ac:    4947        GI      LDR      r1,[pc,#284] ; [0x14cc] = 0x50004200
        0x000013ae:    3140        @1      ADDS     r1,r1,#0x40
        0x000013b0:    6108        .a      STR      r0,[r1,#0x10]
        0x000013b2:    2080        .       MOVS     r0,#0x80
        0x000013b4:    4946        FI      LDR      r1,[pc,#280] ; [0x14d0] = 0x400d0000
        0x000013b6:    6208        .b      STR      r0,[r1,#0x20]
        0x000013b8:    4608        .F      MOV      r0,r1
        0x000013ba:    6800        .h      LDR      r0,[r0,#0]
        0x000013bc:    2101        .!      MOVS     r1,#1
        0x000013be:    4308        .C      ORRS     r0,r0,r1
        0x000013c0:    4943        CI      LDR      r1,[pc,#268] ; [0x14d0] = 0x400d0000
        0x000013c2:    6008        .`      STR      r0,[r1,#0]
        0x000013c4:    bf00        ..      NOP      
        0x000013c6:    4842        BH      LDR      r0,[pc,#264] ; [0x14d0] = 0x400d0000
        0x000013c8:    6800        .h      LDR      r0,[r0,#0]
        0x000013ca:    07c0        ..      LSLS     r0,r0,#31
        0x000013cc:    0fc0        ..      LSRS     r0,r0,#31
        0x000013ce:    2101        .!      MOVS     r1,#1
        0x000013d0:    4048        H@      EORS     r0,r0,r1
        0x000013d2:    4048        H@      EORS     r0,r0,r1
        0x000013d4:    2800        .(      CMP      r0,#0
        0x000013d6:    d1f6        ..      BNE      0x13c6 ; Spi_ReadReg_2 + 38
        0x000013d8:    2001        .       MOVS     r0,#1
        0x000013da:    493d        =I      LDR      r1,[pc,#244] ; [0x14d0] = 0x400d0000
        0x000013dc:    6208        .b      STR      r0,[r1,#0x20]
        0x000013de:    4608        .F      MOV      r0,r1
        0x000013e0:    6800        .h      LDR      r0,[r0,#0]
        0x000013e2:    2101        .!      MOVS     r1,#1
        0x000013e4:    4308        .C      ORRS     r0,r0,r1
        0x000013e6:    493a        :I      LDR      r1,[pc,#232] ; [0x14d0] = 0x400d0000
        0x000013e8:    6008        .`      STR      r0,[r1,#0]
        0x000013ea:    bf00        ..      NOP      
        0x000013ec:    4838        8H      LDR      r0,[pc,#224] ; [0x14d0] = 0x400d0000
        0x000013ee:    6800        .h      LDR      r0,[r0,#0]
        0x000013f0:    07c0        ..      LSLS     r0,r0,#31
        0x000013f2:    0fc0        ..      LSRS     r0,r0,#31
        0x000013f4:    2101        .!      MOVS     r1,#1
        0x000013f6:    4048        H@      EORS     r0,r0,r1
        0x000013f8:    4048        H@      EORS     r0,r0,r1
        0x000013fa:    2800        .(      CMP      r0,#0
        0x000013fc:    d1f6        ..      BNE      0x13ec ; Spi_ReadReg_2 + 76
        0x000013fe:    2001        .       MOVS     r0,#1
        0x00001400:    4932        2I      LDR      r1,[pc,#200] ; [0x14cc] = 0x50004200
        0x00001402:    3140        @1      ADDS     r1,r1,#0x40
        0x00001404:    6108        .a      STR      r0,[r1,#0x10]
        0x00001406:    f000fbca    ....    BL       delay_ms ; 0x1b9e
        0x0000140a:    2000        .       MOVS     r0,#0
        0x0000140c:    492f        /I      LDR      r1,[pc,#188] ; [0x14cc] = 0x50004200
        0x0000140e:    3140        @1      ADDS     r1,r1,#0x40
        0x00001410:    6108        .a      STR      r0,[r1,#0x10]
        0x00001412:    2081        .       MOVS     r0,#0x81
        0x00001414:    492e        .I      LDR      r1,[pc,#184] ; [0x14d0] = 0x400d0000
        0x00001416:    6208        .b      STR      r0,[r1,#0x20]
        0x00001418:    4608        .F      MOV      r0,r1
        0x0000141a:    6800        .h      LDR      r0,[r0,#0]
        0x0000141c:    2101        .!      MOVS     r1,#1
        0x0000141e:    4308        .C      ORRS     r0,r0,r1
        0x00001420:    492b        +I      LDR      r1,[pc,#172] ; [0x14d0] = 0x400d0000
        0x00001422:    6008        .`      STR      r0,[r1,#0]
        0x00001424:    bf00        ..      NOP      
        0x00001426:    482a        *H      LDR      r0,[pc,#168] ; [0x14d0] = 0x400d0000
        0x00001428:    6800        .h      LDR      r0,[r0,#0]
        0x0000142a:    07c0        ..      LSLS     r0,r0,#31
        0x0000142c:    0fc0        ..      LSRS     r0,r0,#31
        0x0000142e:    2101        .!      MOVS     r1,#1
        0x00001430:    4048        H@      EORS     r0,r0,r1
        0x00001432:    4048        H@      EORS     r0,r0,r1
        0x00001434:    2800        .(      CMP      r0,#0
        0x00001436:    d1f6        ..      BNE      0x1426 ; Spi_ReadReg_2 + 134
        0x00001438:    4825        %H      LDR      r0,[pc,#148] ; [0x14d0] = 0x400d0000
        0x0000143a:    6204        .b      STR      r4,[r0,#0x20]
        0x0000143c:    6800        .h      LDR      r0,[r0,#0]
        0x0000143e:    4308        .C      ORRS     r0,r0,r1
        0x00001440:    4923        #I      LDR      r1,[pc,#140] ; [0x14d0] = 0x400d0000
        0x00001442:    6008        .`      STR      r0,[r1,#0]
        0x00001444:    bf00        ..      NOP      
        0x00001446:    4822        "H      LDR      r0,[pc,#136] ; [0x14d0] = 0x400d0000
        0x00001448:    6800        .h      LDR      r0,[r0,#0]
        0x0000144a:    07c0        ..      LSLS     r0,r0,#31
        0x0000144c:    0fc0        ..      LSRS     r0,r0,#31
        0x0000144e:    2101        .!      MOVS     r1,#1
        0x00001450:    4048        H@      EORS     r0,r0,r1
        0x00001452:    4048        H@      EORS     r0,r0,r1
        0x00001454:    2800        .(      CMP      r0,#0
        0x00001456:    d1f6        ..      BNE      0x1446 ; Spi_ReadReg_2 + 166
        0x00001458:    2001        .       MOVS     r0,#1
        0x0000145a:    491c        .I      LDR      r1,[pc,#112] ; [0x14cc] = 0x50004200
        0x0000145c:    3140        @1      ADDS     r1,r1,#0x40
        0x0000145e:    6108        .a      STR      r0,[r1,#0x10]
        0x00001460:    f000fb9d    ....    BL       delay_ms ; 0x1b9e
        0x00001464:    2000        .       MOVS     r0,#0
        0x00001466:    4919        .I      LDR      r1,[pc,#100] ; [0x14cc] = 0x50004200
        0x00001468:    3140        @1      ADDS     r1,r1,#0x40
        0x0000146a:    6108        .a      STR      r0,[r1,#0x10]
        0x0000146c:    2081        .       MOVS     r0,#0x81
        0x0000146e:    4918        .I      LDR      r1,[pc,#96] ; [0x14d0] = 0x400d0000
        0x00001470:    6208        .b      STR      r0,[r1,#0x20]
        0x00001472:    4608        .F      MOV      r0,r1
        0x00001474:    6800        .h      LDR      r0,[r0,#0]
        0x00001476:    2101        .!      MOVS     r1,#1
        0x00001478:    4308        .C      ORRS     r0,r0,r1
        0x0000147a:    4915        .I      LDR      r1,[pc,#84] ; [0x14d0] = 0x400d0000
        0x0000147c:    6008        .`      STR      r0,[r1,#0]
        0x0000147e:    bf00        ..      NOP      
        0x00001480:    4813        .H      LDR      r0,[pc,#76] ; [0x14d0] = 0x400d0000
        0x00001482:    6800        .h      LDR      r0,[r0,#0]
        0x00001484:    07c0        ..      LSLS     r0,r0,#31
        0x00001486:    0fc0        ..      LSRS     r0,r0,#31
        0x00001488:    2101        .!      MOVS     r1,#1
        0x0000148a:    4048        H@      EORS     r0,r0,r1
        0x0000148c:    4048        H@      EORS     r0,r0,r1
        0x0000148e:    2800        .(      CMP      r0,#0
        0x00001490:    d1f6        ..      BNE      0x1480 ; Spi_ReadReg_2 + 224
        0x00001492:    20aa        .       MOVS     r0,#0xaa
        0x00001494:    490e        .I      LDR      r1,[pc,#56] ; [0x14d0] = 0x400d0000
        0x00001496:    6208        .b      STR      r0,[r1,#0x20]
        0x00001498:    4608        .F      MOV      r0,r1
        0x0000149a:    6800        .h      LDR      r0,[r0,#0]
        0x0000149c:    2101        .!      MOVS     r1,#1
        0x0000149e:    4308        .C      ORRS     r0,r0,r1
        0x000014a0:    490b        .I      LDR      r1,[pc,#44] ; [0x14d0] = 0x400d0000
        0x000014a2:    6008        .`      STR      r0,[r1,#0]
        0x000014a4:    bf00        ..      NOP      
        0x000014a6:    480a        .H      LDR      r0,[pc,#40] ; [0x14d0] = 0x400d0000
        0x000014a8:    6800        .h      LDR      r0,[r0,#0]
        0x000014aa:    07c0        ..      LSLS     r0,r0,#31
        0x000014ac:    0fc0        ..      LSRS     r0,r0,#31
        0x000014ae:    2101        .!      MOVS     r1,#1
        0x000014b0:    4048        H@      EORS     r0,r0,r1
        0x000014b2:    4048        H@      EORS     r0,r0,r1
        0x000014b4:    2800        .(      CMP      r0,#0
        0x000014b6:    d1f6        ..      BNE      0x14a6 ; Spi_ReadReg_2 + 262
        0x000014b8:    2001        .       MOVS     r0,#1
        0x000014ba:    4904        .I      LDR      r1,[pc,#16] ; [0x14cc] = 0x50004200
        0x000014bc:    3140        @1      ADDS     r1,r1,#0x40
        0x000014be:    6108        .a      STR      r0,[r1,#0x10]
        0x000014c0:    4803        .H      LDR      r0,[pc,#12] ; [0x14d0] = 0x400d0000
        0x000014c2:    6900        .i      LDR      r0,[r0,#0x10]
        0x000014c4:    b2c5        ..      UXTB     r5,r0
        0x000014c6:    4628        (F      MOV      r0,r5
        0x000014c8:    bd70        p.      POP      {r4-r6,pc}
    $d
        0x000014ca:    0000        ..      DCW    0
        0x000014cc:    50004200    .B.P    DCD    1342194176
        0x000014d0:    400d0000    ...@    DCD    1074593792
    $t
    i.Spi_WriteReg_1
    Spi_WriteReg_1
        0x000014d4:    2200        ."      MOVS     r2,#0
        0x000014d6:    4b15        .K      LDR      r3,[pc,#84] ; [0x152c] = 0x50004200
        0x000014d8:    621a        .b      STR      r2,[r3,#0x20]
        0x000014da:    2201        ."      MOVS     r2,#1
        0x000014dc:    4b13        .K      LDR      r3,[pc,#76] ; [0x152c] = 0x50004200
        0x000014de:    3340        @3      ADDS     r3,r3,#0x40
        0x000014e0:    611a        .a      STR      r2,[r3,#0x10]
        0x000014e2:    4a13        .J      LDR      r2,[pc,#76] ; [0x1530] = 0x400d0000
        0x000014e4:    6210        .b      STR      r0,[r2,#0x20]
        0x000014e6:    6812        .h      LDR      r2,[r2,#0]
        0x000014e8:    2301        .#      MOVS     r3,#1
        0x000014ea:    431a        .C      ORRS     r2,r2,r3
        0x000014ec:    4b10        .K      LDR      r3,[pc,#64] ; [0x1530] = 0x400d0000
        0x000014ee:    601a        .`      STR      r2,[r3,#0]
        0x000014f0:    bf00        ..      NOP      
        0x000014f2:    4a0f        .J      LDR      r2,[pc,#60] ; [0x1530] = 0x400d0000
        0x000014f4:    6812        .h      LDR      r2,[r2,#0]
        0x000014f6:    07d2        ..      LSLS     r2,r2,#31
        0x000014f8:    0fd2        ..      LSRS     r2,r2,#31
        0x000014fa:    2301        .#      MOVS     r3,#1
        0x000014fc:    405a        Z@      EORS     r2,r2,r3
        0x000014fe:    405a        Z@      EORS     r2,r2,r3
        0x00001500:    2a00        .*      CMP      r2,#0
        0x00001502:    d1f6        ..      BNE      0x14f2 ; Spi_WriteReg_1 + 30
        0x00001504:    4a0a        .J      LDR      r2,[pc,#40] ; [0x1530] = 0x400d0000
        0x00001506:    6211        .b      STR      r1,[r2,#0x20]
        0x00001508:    6812        .h      LDR      r2,[r2,#0]
        0x0000150a:    431a        .C      ORRS     r2,r2,r3
        0x0000150c:    4b08        .K      LDR      r3,[pc,#32] ; [0x1530] = 0x400d0000
        0x0000150e:    601a        .`      STR      r2,[r3,#0]
        0x00001510:    bf00        ..      NOP      
        0x00001512:    4a07        .J      LDR      r2,[pc,#28] ; [0x1530] = 0x400d0000
        0x00001514:    6812        .h      LDR      r2,[r2,#0]
        0x00001516:    07d2        ..      LSLS     r2,r2,#31
        0x00001518:    0fd2        ..      LSRS     r2,r2,#31
        0x0000151a:    2301        .#      MOVS     r3,#1
        0x0000151c:    405a        Z@      EORS     r2,r2,r3
        0x0000151e:    405a        Z@      EORS     r2,r2,r3
        0x00001520:    2a00        .*      CMP      r2,#0
        0x00001522:    d1f6        ..      BNE      0x1512 ; Spi_WriteReg_1 + 62
        0x00001524:    2201        ."      MOVS     r2,#1
        0x00001526:    4b01        .K      LDR      r3,[pc,#4] ; [0x152c] = 0x50004200
        0x00001528:    621a        .b      STR      r2,[r3,#0x20]
        0x0000152a:    4770        pG      BX       lr
    $d
        0x0000152c:    50004200    .B.P    DCD    1342194176
        0x00001530:    400d0000    ...@    DCD    1074593792
    $t
    i.Spi_WriteReg_2
    Spi_WriteReg_2
        0x00001534:    2201        ."      MOVS     r2,#1
        0x00001536:    4b16        .K      LDR      r3,[pc,#88] ; [0x1590] = 0x50004200
        0x00001538:    621a        .b      STR      r2,[r3,#0x20]
        0x0000153a:    2200        ."      MOVS     r2,#0
        0x0000153c:    4b14        .K      LDR      r3,[pc,#80] ; [0x1590] = 0x50004200
        0x0000153e:    3340        @3      ADDS     r3,r3,#0x40
        0x00001540:    611a        .a      STR      r2,[r3,#0x10]
        0x00001542:    4a14        .J      LDR      r2,[pc,#80] ; [0x1594] = 0x400d0000
        0x00001544:    6210        .b      STR      r0,[r2,#0x20]
        0x00001546:    6812        .h      LDR      r2,[r2,#0]
        0x00001548:    2301        .#      MOVS     r3,#1
        0x0000154a:    431a        .C      ORRS     r2,r2,r3
        0x0000154c:    4b11        .K      LDR      r3,[pc,#68] ; [0x1594] = 0x400d0000
        0x0000154e:    601a        .`      STR      r2,[r3,#0]
        0x00001550:    bf00        ..      NOP      
        0x00001552:    4a10        .J      LDR      r2,[pc,#64] ; [0x1594] = 0x400d0000
        0x00001554:    6812        .h      LDR      r2,[r2,#0]
        0x00001556:    07d2        ..      LSLS     r2,r2,#31
        0x00001558:    0fd2        ..      LSRS     r2,r2,#31
        0x0000155a:    2301        .#      MOVS     r3,#1
        0x0000155c:    405a        Z@      EORS     r2,r2,r3
        0x0000155e:    405a        Z@      EORS     r2,r2,r3
        0x00001560:    2a00        .*      CMP      r2,#0
        0x00001562:    d1f6        ..      BNE      0x1552 ; Spi_WriteReg_2 + 30
        0x00001564:    4a0b        .J      LDR      r2,[pc,#44] ; [0x1594] = 0x400d0000
        0x00001566:    6211        .b      STR      r1,[r2,#0x20]
        0x00001568:    6812        .h      LDR      r2,[r2,#0]
        0x0000156a:    431a        .C      ORRS     r2,r2,r3
        0x0000156c:    4b09        .K      LDR      r3,[pc,#36] ; [0x1594] = 0x400d0000
        0x0000156e:    601a        .`      STR      r2,[r3,#0]
        0x00001570:    bf00        ..      NOP      
        0x00001572:    4a08        .J      LDR      r2,[pc,#32] ; [0x1594] = 0x400d0000
        0x00001574:    6812        .h      LDR      r2,[r2,#0]
        0x00001576:    07d2        ..      LSLS     r2,r2,#31
        0x00001578:    0fd2        ..      LSRS     r2,r2,#31
        0x0000157a:    2301        .#      MOVS     r3,#1
        0x0000157c:    405a        Z@      EORS     r2,r2,r3
        0x0000157e:    405a        Z@      EORS     r2,r2,r3
        0x00001580:    2a00        .*      CMP      r2,#0
        0x00001582:    d1f6        ..      BNE      0x1572 ; Spi_WriteReg_2 + 62
        0x00001584:    2201        ."      MOVS     r2,#1
        0x00001586:    4b02        .K      LDR      r3,[pc,#8] ; [0x1590] = 0x50004200
        0x00001588:    3340        @3      ADDS     r3,r3,#0x40
        0x0000158a:    611a        .a      STR      r2,[r3,#0x10]
        0x0000158c:    4770        pG      BX       lr
    $d
        0x0000158e:    0000        ..      DCW    0
        0x00001590:    50004200    .B.P    DCD    1342194176
        0x00001594:    400d0000    ...@    DCD    1074593792
    $t
    i.SysGet_HCLKFreq
    SysGet_HCLKFreq
        0x00001598:    b570        p.      PUSH     {r4-r6,lr}
        0x0000159a:    4810        .H      LDR      r0,[pc,#64] ; [0x15dc] = 0x50000200
        0x0000159c:    6900        .i      LDR      r0,[r0,#0x10]
        0x0000159e:    0745        E.      LSLS     r5,r0,#29
        0x000015a0:    0f6d        m.      LSRS     r5,r5,#29
        0x000015a2:    2d00        .-      CMP      r5,#0
        0x000015a4:    d101        ..      BNE      0x15aa ; SysGet_HCLKFreq + 18
        0x000015a6:    4c0e        .L      LDR      r4,[pc,#56] ; [0x15e0] = 0xb71b00
        0x000015a8:    e00e        ..      B        0x15c8 ; SysGet_HCLKFreq + 48
        0x000015aa:    2d01        .-      CMP      r5,#1
        0x000015ac:    d101        ..      BNE      0x15b2 ; SysGet_HCLKFreq + 26
        0x000015ae:    03ec        ..      LSLS     r4,r5,#15
        0x000015b0:    e00a        ..      B        0x15c8 ; SysGet_HCLKFreq + 48
        0x000015b2:    2d02        .-      CMP      r5,#2
        0x000015b4:    d103        ..      BNE      0x15be ; SysGet_HCLKFreq + 38
        0x000015b6:    f000f817    ....    BL       SysGet_PLLClockFreq ; 0x15e8
        0x000015ba:    4604        .F      MOV      r4,r0
        0x000015bc:    e004        ..      B        0x15c8 ; SysGet_HCLKFreq + 48
        0x000015be:    2d03        .-      CMP      r5,#3
        0x000015c0:    d101        ..      BNE      0x15c6 ; SysGet_HCLKFreq + 46
        0x000015c2:    4c08        .L      LDR      r4,[pc,#32] ; [0x15e4] = 0x2710
        0x000015c4:    e000        ..      B        0x15c8 ; SysGet_HCLKFreq + 48
        0x000015c6:    4c06        .L      LDR      r4,[pc,#24] ; [0x15e0] = 0xb71b00
        0x000015c8:    4804        .H      LDR      r0,[pc,#16] ; [0x15dc] = 0x50000200
        0x000015ca:    69c0        .i      LDR      r0,[r0,#0x1c]
        0x000015cc:    0700        ..      LSLS     r0,r0,#28
        0x000015ce:    0f00        ..      LSRS     r0,r0,#28
        0x000015d0:    1c46        F.      ADDS     r6,r0,#1
        0x000015d2:    4631        1F      MOV      r1,r6
        0x000015d4:    4620         F      MOV      r0,r4
        0x000015d6:    f7feff21    ..!.    BL       __aeabi_uidiv ; 0x41c
        0x000015da:    bd70        p.      POP      {r4-r6,pc}
    $d
        0x000015dc:    50000200    ...P    DCD    1342177792
        0x000015e0:    00b71b00    ....    DCD    12000000
        0x000015e4:    00002710    .'..    DCD    10000
    $t
    i.SysGet_PLLClockFreq
    SysGet_PLLClockFreq
        0x000015e8:    b5fe        ..      PUSH     {r1-r7,lr}
        0x000015ea:    2000        .       MOVS     r0,#0
        0x000015ec:    9002        ..      STR      r0,[sp,#8]
        0x000015ee:    481c        .H      LDR      r0,[pc,#112] ; [0x1660] = 0x50000200
        0x000015f0:    6a45        Ej      LDR      r5,[r0,#0x24]
        0x000015f2:    01c0        ..      LSLS     r0,r0,#7
        0x000015f4:    4028        (@      ANDS     r0,r0,r5
        0x000015f6:    2800        .(      CMP      r0,#0
        0x000015f8:    d001        ..      BEQ      0x15fe ; SysGet_PLLClockFreq + 22
        0x000015fa:    2000        .       MOVS     r0,#0
        0x000015fc:    bdfe        ..      POP      {r1-r7,pc}
        0x000015fe:    2001        .       MOVS     r0,#1
        0x00001600:    0440        @.      LSLS     r0,r0,#17
        0x00001602:    4028        (@      ANDS     r0,r0,r5
        0x00001604:    2800        .(      CMP      r0,#0
        0x00001606:    d001        ..      BEQ      0x160c ; SysGet_PLLClockFreq + 36
        0x00001608:    4f16        .O      LDR      r7,[pc,#88] ; [0x1664] = 0xb71b00
        0x0000160a:    e000        ..      B        0x160e ; SysGet_PLLClockFreq + 38
        0x0000160c:    4f15        .O      LDR      r7,[pc,#84] ; [0x1664] = 0xb71b00
        0x0000160e:    2001        .       MOVS     r0,#1
        0x00001610:    0300        ..      LSLS     r0,r0,#12
        0x00001612:    4028        (@      ANDS     r0,r0,r5
        0x00001614:    2800        .(      CMP      r0,#0
        0x00001616:    d001        ..      BEQ      0x161c ; SysGet_PLLClockFreq + 52
        0x00001618:    2002        .       MOVS     r0,#2
        0x0000161a:    e000        ..      B        0x161e ; SysGet_PLLClockFreq + 54
        0x0000161c:    2001        .       MOVS     r0,#1
        0x0000161e:    9001        ..      STR      r0,[sp,#4]
        0x00001620:    2003        .       MOVS     r0,#3
        0x00001622:    0200        ..      LSLS     r0,r0,#8
        0x00001624:    4028        (@      ANDS     r0,r0,r5
        0x00001626:    0a06        ..      LSRS     r6,r0,#8
        0x00001628:    2e00        ..      CMP      r6,#0
        0x0000162a:    d101        ..      BNE      0x1630 ; SysGet_PLLClockFreq + 72
        0x0000162c:    2402        .$      MOVS     r4,#2
        0x0000162e:    e008        ..      B        0x1642 ; SysGet_PLLClockFreq + 90
        0x00001630:    2e01        ..      CMP      r6,#1
        0x00001632:    d101        ..      BNE      0x1638 ; SysGet_PLLClockFreq + 80
        0x00001634:    2404        .$      MOVS     r4,#4
        0x00001636:    e004        ..      B        0x1642 ; SysGet_PLLClockFreq + 90
        0x00001638:    2e02        ..      CMP      r6,#2
        0x0000163a:    d101        ..      BNE      0x1640 ; SysGet_PLLClockFreq + 88
        0x0000163c:    2408        .$      MOVS     r4,#8
        0x0000163e:    e000        ..      B        0x1642 ; SysGet_PLLClockFreq + 90
        0x00001640:    2410        .$      MOVS     r4,#0x10
        0x00001642:    06a9        ..      LSLS     r1,r5,#26
        0x00001644:    0e89        ..      LSRS     r1,r1,#26
        0x00001646:    3120         1      ADDS     r1,r1,#0x20
        0x00001648:    4379        yC      MULS     r1,r7,r1
        0x0000164a:    4608        .F      MOV      r0,r1
        0x0000164c:    4621        !F      MOV      r1,r4
        0x0000164e:    f7fefee5    ....    BL       __aeabi_uidiv ; 0x41c
        0x00001652:    9000        ..      STR      r0,[sp,#0]
        0x00001654:    9901        ..      LDR      r1,[sp,#4]
        0x00001656:    f7fefee1    ....    BL       __aeabi_uidiv ; 0x41c
        0x0000165a:    9002        ..      STR      r0,[sp,#8]
        0x0000165c:    9802        ..      LDR      r0,[sp,#8]
        0x0000165e:    e7cd        ..      B        0x15fc ; SysGet_PLLClockFreq + 20
    $d
        0x00001660:    50000200    ...P    DCD    1342177792
        0x00001664:    00b71b00    ....    DCD    12000000
    $t
    i.SystemCoreClockUpdate
    SystemCoreClockUpdate
        0x00001668:    b510        ..      PUSH     {r4,lr}
        0x0000166a:    f7ffff95    ....    BL       SysGet_HCLKFreq ; 0x1598
        0x0000166e:    4906        .I      LDR      r1,[pc,#24] ; [0x1688] = 0x20000000
        0x00001670:    6008        .`      STR      r0,[r1,#0]
        0x00001672:    4906        .I      LDR      r1,[pc,#24] ; [0x168c] = 0xf4240
        0x00001674:    4804        .H      LDR      r0,[pc,#16] ; [0x1688] = 0x20000000
        0x00001676:    6800        .h      LDR      r0,[r0,#0]
        0x00001678:    104a        J.      ASRS     r2,r1,#1
        0x0000167a:    1880        ..      ADDS     r0,r0,r2
        0x0000167c:    f7fefece    ....    BL       __aeabi_uidiv ; 0x41c
        0x00001680:    4903        .I      LDR      r1,[pc,#12] ; [0x1690] = 0x20000004
        0x00001682:    6008        .`      STR      r0,[r1,#0]
        0x00001684:    bd10        ..      POP      {r4,pc}
    $d
        0x00001686:    0000        ..      DCW    0
        0x00001688:    20000000    ...     DCD    536870912
        0x0000168c:    000f4240    @B..    DCD    1000000
        0x00001690:    20000004    ...     DCD    536870916
    $t
    i.UART_Open
    UART_Open
        0x00001694:    b5f0        ..      PUSH     {r4-r7,lr}
        0x00001696:    b087        ..      SUB      sp,sp,#0x1c
        0x00001698:    4604        .F      MOV      r4,r0
        0x0000169a:    460d        .F      MOV      r5,r1
        0x0000169c:    4822        "H      LDR      r0,[pc,#136] ; [0x1728] = 0x209c
        0x0000169e:    4601        .F      MOV      r1,r0
        0x000016a0:    c90e        ..      LDM      r1,{r1-r3}
        0x000016a2:    68c0        .h      LDR      r0,[r0,#0xc]
        0x000016a4:    ae02        ..      ADD      r6,sp,#8
        0x000016a6:    c60e        ..      STM      r6!,{r1-r3}
        0x000016a8:    9005        ..      STR      r0,[sp,#0x14]
        0x000016aa:    4820         H      LDR      r0,[pc,#128] ; [0x172c] = 0x50000200
        0x000016ac:    6940        @i      LDR      r0,[r0,#0x14]
        0x000016ae:    0780        ..      LSLS     r0,r0,#30
        0x000016b0:    0f80        ..      LSRS     r0,r0,#30
        0x000016b2:    9006        ..      STR      r0,[sp,#0x18]
        0x000016b4:    9806        ..      LDR      r0,[sp,#0x18]
        0x000016b6:    0080        ..      LSLS     r0,r0,#2
        0x000016b8:    a902        ..      ADD      r1,sp,#8
        0x000016ba:    580f        .X      LDR      r7,[r1,r0]
        0x000016bc:    481b        .H      LDR      r0,[pc,#108] ; [0x172c] = 0x50000200
        0x000016be:    69c0        .i      LDR      r0,[r0,#0x1c]
        0x000016c0:    210f        .!      MOVS     r1,#0xf
        0x000016c2:    0209        ..      LSLS     r1,r1,#8
        0x000016c4:    4008        .@      ANDS     r0,r0,r1
        0x000016c6:    0a00        ..      LSRS     r0,r0,#8
        0x000016c8:    1c40        @.      ADDS     r0,r0,#1
        0x000016ca:    9001        ..      STR      r0,[sp,#4]
        0x000016cc:    2f00        ./      CMP      r7,#0
        0x000016ce:    d107        ..      BNE      0x16e0 ; UART_Open + 76
        0x000016d0:    f7ffff8a    ....    BL       SysGet_PLLClockFreq ; 0x15e8
        0x000016d4:    9000        ..      STR      r0,[sp,#0]
        0x000016d6:    9901        ..      LDR      r1,[sp,#4]
        0x000016d8:    f7fefea0    ....    BL       __aeabi_uidiv ; 0x41c
        0x000016dc:    4607        .F      MOV      r7,r0
        0x000016de:    e004        ..      B        0x16ea ; UART_Open + 86
        0x000016e0:    4638        8F      MOV      r0,r7
        0x000016e2:    9901        ..      LDR      r1,[sp,#4]
        0x000016e4:    f7fefe9a    ....    BL       __aeabi_uidiv ; 0x41c
        0x000016e8:    4607        .F      MOV      r7,r0
        0x000016ea:    2000        .       MOVS     r0,#0
        0x000016ec:    63a0        .c      STR      r0,[r4,#0x38]
        0x000016ee:    2003        .       MOVS     r0,#3
        0x000016f0:    60a0        .`      STR      r0,[r4,#8]
        0x000016f2:    2d00        .-      CMP      r5,#0
        0x000016f4:    d015        ..      BEQ      0x1722 ; UART_Open + 142
        0x000016f6:    0869        i.      LSRS     r1,r5,#1
        0x000016f8:    19c8        ..      ADDS     r0,r1,r7
        0x000016fa:    4629        )F      MOV      r1,r5
        0x000016fc:    f7fefe8e    ....    BL       __aeabi_uidiv ; 0x41c
        0x00001700:    1e46        F.      SUBS     r6,r0,#1
        0x00001702:    480b        .H      LDR      r0,[pc,#44] ; [0x1730] = 0xffff
        0x00001704:    4286        .B      CMP      r6,r0
        0x00001706:    d90b        ..      BLS      0x1720 ; UART_Open + 140
        0x00001708:    00e9        ..      LSLS     r1,r5,#3
        0x0000170a:    19c8        ..      ADDS     r0,r1,r7
        0x0000170c:    4629        )F      MOV      r1,r5
        0x0000170e:    f7fefe85    ....    BL       __aeabi_uidiv ; 0x41c
        0x00001712:    0900        ..      LSRS     r0,r0,#4
        0x00001714:    1e40        @.      SUBS     r0,r0,#1
        0x00001716:    2101        .!      MOVS     r1,#1
        0x00001718:    07c9        ..      LSLS     r1,r1,#31
        0x0000171a:    4308        .C      ORRS     r0,r0,r1
        0x0000171c:    6260        `b      STR      r0,[r4,#0x24]
        0x0000171e:    e000        ..      B        0x1722 ; UART_Open + 142
        0x00001720:    6266        fb      STR      r6,[r4,#0x24]
        0x00001722:    b007        ..      ADD      sp,sp,#0x1c
        0x00001724:    bdf0        ..      POP      {r4-r7,pc}
    $d
        0x00001726:    0000        ..      DCW    0
        0x00001728:    0000209c    . ..    DCD    8348
        0x0000172c:    50000200    ...P    DCD    1342177792
        0x00001730:    0000ffff    ....    DCD    65535
    $t
    i.Verify_Firmware
    Verify_Firmware
        0x00001734:    b5f0        ..      PUSH     {r4-r7,lr}
        0x00001736:    b0a5        ..      SUB      sp,sp,#0x94
        0x00001738:    a05a        Z.      ADR      r0,{pc}+0x16c ; 0x18a4
        0x0000173a:    f7fefd4f    ..O.    BL       __2printf ; 0x1dc
        0x0000173e:    2180        .!      MOVS     r1,#0x80
        0x00001740:    20ff        .       MOVS     r0,#0xff
        0x00001742:    f7fffbb6    ....    BL       LT_WriteI2C_Byte ; 0xeb2
        0x00001746:    2101        .!      MOVS     r1,#1
        0x00001748:    20ee        .       MOVS     r0,#0xee
        0x0000174a:    f7fffbb2    ....    BL       LT_WriteI2C_Byte ; 0xeb2
        0x0000174e:    2190        .!      MOVS     r1,#0x90
        0x00001750:    20ff        .       MOVS     r0,#0xff
        0x00001752:    f7fffbae    ....    BL       LT_WriteI2C_Byte ; 0xeb2
        0x00001756:    2002        .       MOVS     r0,#2
        0x00001758:    f7fffb8a    ....    BL       LT_ReadI2C_Byte ; 0xe70
        0x0000175c:    9024        $.      STR      r0,[sp,#0x90]
        0x0000175e:    21df        .!      MOVS     r1,#0xdf
        0x00001760:    9824        $.      LDR      r0,[sp,#0x90]
        0x00001762:    4008        .@      ANDS     r0,r0,r1
        0x00001764:    9024        $.      STR      r0,[sp,#0x90]
        0x00001766:    2002        .       MOVS     r0,#2
        0x00001768:    9924        $.      LDR      r1,[sp,#0x90]
        0x0000176a:    f7fffba2    ....    BL       LT_WriteI2C_Byte ; 0xeb2
        0x0000176e:    2120         !      MOVS     r1,#0x20
        0x00001770:    9824        $.      LDR      r0,[sp,#0x90]
        0x00001772:    4308        .C      ORRS     r0,r0,r1
        0x00001774:    9024        $.      STR      r0,[sp,#0x90]
        0x00001776:    2002        .       MOVS     r0,#2
        0x00001778:    9924        $.      LDR      r1,[sp,#0x90]
        0x0000177a:    f7fffb9a    ....    BL       LT_WriteI2C_Byte ; 0xeb2
        0x0000177e:    2180        .!      MOVS     r1,#0x80
        0x00001780:    20ff        .       MOVS     r0,#0xff
        0x00001782:    f7fffb96    ....    BL       LT_WriteI2C_Byte ; 0xeb2
        0x00001786:    2186        .!      MOVS     r1,#0x86
        0x00001788:    205a        Z       MOVS     r0,#0x5a
        0x0000178a:    f7fffb92    ....    BL       LT_WriteI2C_Byte ; 0xeb2
        0x0000178e:    2182        .!      MOVS     r1,#0x82
        0x00001790:    205a        Z       MOVS     r0,#0x5a
        0x00001792:    f7fffb8e    ....    BL       LT_WriteI2C_Byte ; 0xeb2
        0x00001796:    2500        .%      MOVS     r5,#0
        0x00001798:    2000        .       MOVS     r0,#0
        0x0000179a:    9023        #.      STR      r0,[sp,#0x8c]
        0x0000179c:    20ff        .       MOVS     r0,#0xff
        0x0000179e:    0400        ..      LSLS     r0,r0,#16
        0x000017a0:    4028        (@      ANDS     r0,r0,r5
        0x000017a2:    1401        ..      ASRS     r1,r0,#16
        0x000017a4:    a820         .      ADD      r0,sp,#0x80
        0x000017a6:    7301        .s      STRB     r1,[r0,#0xc]
        0x000017a8:    20ff        .       MOVS     r0,#0xff
        0x000017aa:    0200        ..      LSLS     r0,r0,#8
        0x000017ac:    4028        (@      ANDS     r0,r0,r5
        0x000017ae:    1201        ..      ASRS     r1,r0,#8
        0x000017b0:    a820         .      ADD      r0,sp,#0x80
        0x000017b2:    7341        As      STRB     r1,[r0,#0xd]
        0x000017b4:    7385        .s      STRB     r5,[r0,#0xe]
        0x000017b6:    4c40        @L      LDR      r4,[pc,#256] ; [0x18b8] = 0x1904
        0x000017b8:    4621        !F      MOV      r1,r4
        0x000017ba:    a040        @.      ADR      r0,{pc}+0x102 ; 0x18bc
        0x000017bc:    f7fefd0e    ....    BL       __2printf ; 0x1dc
        0x000017c0:    4620         F      MOV      r0,r4
        0x000017c2:    17e1        ..      ASRS     r1,r4,#31
        0x000017c4:    0f09        ..      LSRS     r1,r1,#28
        0x000017c6:    1809        ..      ADDS     r1,r1,r0
        0x000017c8:    1109        ..      ASRS     r1,r1,#4
        0x000017ca:    9122        ".      STR      r1,[sp,#0x88]
        0x000017cc:    17e1        ..      ASRS     r1,r4,#31
        0x000017ce:    0f09        ..      LSRS     r1,r1,#28
        0x000017d0:    1809        ..      ADDS     r1,r1,r0
        0x000017d2:    1109        ..      ASRS     r1,r1,#4
        0x000017d4:    0109        ..      LSLS     r1,r1,#4
        0x000017d6:    1a61        a.      SUBS     r1,r4,r1
        0x000017d8:    d002        ..      BEQ      0x17e0 ; Verify_Firmware + 172
        0x000017da:    9822        ".      LDR      r0,[sp,#0x88]
        0x000017dc:    1c40        @.      ADDS     r0,r0,#1
        0x000017de:    9022        ".      STR      r0,[sp,#0x88]
        0x000017e0:    2600        .&      MOVS     r6,#0
        0x000017e2:    e05a        Z.      B        0x189a ; Verify_Firmware + 358
        0x000017e4:    216f        o!      MOVS     r1,#0x6f
        0x000017e6:    205e        ^       MOVS     r0,#0x5e
        0x000017e8:    f7fffb63    ..c.    BL       LT_WriteI2C_Byte ; 0xeb2
        0x000017ec:    21a2        .!      MOVS     r1,#0xa2
        0x000017ee:    205a        Z       MOVS     r0,#0x5a
        0x000017f0:    f7fffb5f    .._.    BL       LT_WriteI2C_Byte ; 0xeb2
        0x000017f4:    2182        .!      MOVS     r1,#0x82
        0x000017f6:    205a        Z       MOVS     r0,#0x5a
        0x000017f8:    f7fffb5b    ..[.    BL       LT_WriteI2C_Byte ; 0xeb2
        0x000017fc:    a820         .      ADD      r0,sp,#0x80
        0x000017fe:    7b01        .{      LDRB     r1,[r0,#0xc]
        0x00001800:    205b        [       MOVS     r0,#0x5b
        0x00001802:    f7fffb56    ..V.    BL       LT_WriteI2C_Byte ; 0xeb2
        0x00001806:    a820         .      ADD      r0,sp,#0x80
        0x00001808:    7b41        A{      LDRB     r1,[r0,#0xd]
        0x0000180a:    205c        \       MOVS     r0,#0x5c
        0x0000180c:    f7fffb51    ..Q.    BL       LT_WriteI2C_Byte ; 0xeb2
        0x00001810:    a820         .      ADD      r0,sp,#0x80
        0x00001812:    7b81        .{      LDRB     r1,[r0,#0xe]
        0x00001814:    205d        ]       MOVS     r0,#0x5d
        0x00001816:    f7fffb4c    ..L.    BL       LT_WriteI2C_Byte ; 0xeb2
        0x0000181a:    2192        .!      MOVS     r1,#0x92
        0x0000181c:    205a        Z       MOVS     r0,#0x5a
        0x0000181e:    f7fffb48    ..H.    BL       LT_WriteI2C_Byte ; 0xeb2
        0x00001822:    2182        .!      MOVS     r1,#0x82
        0x00001824:    205a        Z       MOVS     r0,#0x5a
        0x00001826:    f7fffb44    ..D.    BL       LT_WriteI2C_Byte ; 0xeb2
        0x0000182a:    2101        .!      MOVS     r1,#1
        0x0000182c:    2058        X       MOVS     r0,#0x58
        0x0000182e:    f7fffb40    ..@.    BL       LT_WriteI2C_Byte ; 0xeb2
        0x00001832:    2710        .'      MOVS     r7,#0x10
        0x00001834:    0130        0.      LSLS     r0,r6,#4
        0x00001836:    1a20         .      SUBS     r0,r4,r0
        0x00001838:    2810        .(      CMP      r0,#0x10
        0x0000183a:    da05        ..      BGE      0x1848 ; Verify_Firmware + 276
        0x0000183c:    0130        0.      LSLS     r0,r6,#4
        0x0000183e:    1a27        '.      SUBS     r7,r4,r0
        0x00001840:    4639        9F      MOV      r1,r7
        0x00001842:    a027        '.      ADR      r0,{pc}+0x9e ; 0x18e0
        0x00001844:    f7fefcca    ....    BL       __2printf ; 0x1dc
        0x00001848:    2180        .!      MOVS     r1,#0x80
        0x0000184a:    a802        ..      ADD      r0,sp,#8
        0x0000184c:    f7fefde4    ....    BL       __aeabi_memclr4 ; 0x418
        0x00001850:    b2ba        ..      UXTH     r2,r7
        0x00001852:    a902        ..      ADD      r1,sp,#8
        0x00001854:    205f        _       MOVS     r0,#0x5f
        0x00001856:    f7fffb1c    ....    BL       LT_ReadI2C_ByteN ; 0xe92
        0x0000185a:    9001        ..      STR      r0,[sp,#4]
        0x0000185c:    2100        .!      MOVS     r1,#0
        0x0000185e:    e00b        ..      B        0x1878 ; Verify_Firmware + 324
        0x00001860:    a802        ..      ADD      r0,sp,#8
        0x00001862:    5c40        @\      LDRB     r0,[r0,r1]
        0x00001864:    0132        2.      LSLS     r2,r6,#4
        0x00001866:    1852        R.      ADDS     r2,r2,r1
        0x00001868:    4b22        "K      LDR      r3,[pc,#136] ; [0x18f4] = 0x20000093
        0x0000186a:    5c9a        .\      LDRB     r2,[r3,r2]
        0x0000186c:    4290        .B      CMP      r0,r2
        0x0000186e:    d002        ..      BEQ      0x1876 ; Verify_Firmware + 322
        0x00001870:    2000        .       MOVS     r0,#0
        0x00001872:    b025        %.      ADD      sp,sp,#0x94
        0x00001874:    bdf0        ..      POP      {r4-r7,pc}
        0x00001876:    1c49        I.      ADDS     r1,r1,#1
        0x00001878:    42b9        .B      CMP      r1,r7
        0x0000187a:    dbf1        ..      BLT      0x1860 ; Verify_Firmware + 300
        0x0000187c:    19ed        ..      ADDS     r5,r5,r7
        0x0000187e:    20ff        .       MOVS     r0,#0xff
        0x00001880:    0400        ..      LSLS     r0,r0,#16
        0x00001882:    4028        (@      ANDS     r0,r0,r5
        0x00001884:    1401        ..      ASRS     r1,r0,#16
        0x00001886:    a820         .      ADD      r0,sp,#0x80
        0x00001888:    7301        .s      STRB     r1,[r0,#0xc]
        0x0000188a:    20ff        .       MOVS     r0,#0xff
        0x0000188c:    0200        ..      LSLS     r0,r0,#8
        0x0000188e:    4028        (@      ANDS     r0,r0,r5
        0x00001890:    1201        ..      ASRS     r1,r0,#8
        0x00001892:    a820         .      ADD      r0,sp,#0x80
        0x00001894:    7341        As      STRB     r1,[r0,#0xd]
        0x00001896:    7385        .s      STRB     r5,[r0,#0xe]
        0x00001898:    1c76        v.      ADDS     r6,r6,#1
        0x0000189a:    9822        ".      LDR      r0,[sp,#0x88]
        0x0000189c:    4286        .B      CMP      r6,r0
        0x0000189e:    dba1        ..      BLT      0x17e4 ; Verify_Firmware + 176
        0x000018a0:    2001        .       MOVS     r0,#1
        0x000018a2:    e7e6        ..      B        0x1872 ; Verify_Firmware + 318
    $d
        0x000018a4:    69726556    Veri    DCD    1769104726
        0x000018a8:    465f7966    fy_F    DCD    1180662118
        0x000018ac:    776d7269    irmw    DCD    2003661417
        0x000018b0:    20657261    are     DCD    543519329
        0x000018b4:    0000000a    ....    DCD    10
        0x000018b8:    00001904    ....    DCD    6404
        0x000018bc:    69726556    Veri    DCD    1769104726
        0x000018c0:    465f7966    fy_F    DCD    1180662118
        0x000018c4:    776d7269    irmw    DCD    2003661417
        0x000018c8:    20657261    are     DCD    543519329
        0x000018cc:    74697257    Writ    DCD    1953067607
        0x000018d0:    74614465    eDat    DCD    1952531557
        0x000018d4:    6e654c61    aLen    DCD    1852132449
        0x000018d8:    25203d20     = %    DCD    622869792
        0x000018dc:    00000a64    d...    DCD    2660
        0x000018e0:    6761506e    nPag    DCD    1734430830
        0x000018e4:    61655265    eRea    DCD    1634030181
        0x000018e8:    6e654c64    dLen    DCD    1852132452
        0x000018ec:    25203d20     = %    DCD    622869792
        0x000018f0:    000a2064    d ..    DCD    663652
        0x000018f4:    20000093    ...     DCD    536871059
    $t
    i.Write_Frimware
    Write_Frimware
        0x000018f8:    b5fe        ..      PUSH     {r1-r7,lr}
        0x000018fa:    4c4c        LL      LDR      r4,[pc,#304] ; [0x1a2c] = 0x1904
        0x000018fc:    4621        !F      MOV      r1,r4
        0x000018fe:    a04c        L.      ADR      r0,{pc}+0x132 ; 0x1a30
        0x00001900:    f7fefc6c    ..l.    BL       __2printf ; 0x1dc
        0x00001904:    2180        .!      MOVS     r1,#0x80
        0x00001906:    20ff        .       MOVS     r0,#0xff
        0x00001908:    f7fffad3    ....    BL       LT_WriteI2C_Byte ; 0xeb2
        0x0000190c:    2101        .!      MOVS     r1,#1
        0x0000190e:    20ee        .       MOVS     r0,#0xee
        0x00001910:    f7fffacf    ....    BL       LT_WriteI2C_Byte ; 0xeb2
        0x00001914:    2190        .!      MOVS     r1,#0x90
        0x00001916:    20ff        .       MOVS     r0,#0xff
        0x00001918:    f7fffacb    ....    BL       LT_WriteI2C_Byte ; 0xeb2
        0x0000191c:    2002        .       MOVS     r0,#2
        0x0000191e:    f7fffaa7    ....    BL       LT_ReadI2C_Byte ; 0xe70
        0x00001922:    4606        .F      MOV      r6,r0
        0x00001924:    20df        .       MOVS     r0,#0xdf
        0x00001926:    4006        .@      ANDS     r6,r6,r0
        0x00001928:    4631        1F      MOV      r1,r6
        0x0000192a:    2002        .       MOVS     r0,#2
        0x0000192c:    f7fffac1    ....    BL       LT_WriteI2C_Byte ; 0xeb2
        0x00001930:    2020                MOVS     r0,#0x20
        0x00001932:    4306        .C      ORRS     r6,r6,r0
        0x00001934:    4631        1F      MOV      r1,r6
        0x00001936:    2002        .       MOVS     r0,#2
        0x00001938:    f7fffabb    ....    BL       LT_WriteI2C_Byte ; 0xeb2
        0x0000193c:    2180        .!      MOVS     r1,#0x80
        0x0000193e:    20ff        .       MOVS     r0,#0xff
        0x00001940:    f7fffab7    ....    BL       LT_WriteI2C_Byte ; 0xeb2
        0x00001944:    2186        .!      MOVS     r1,#0x86
        0x00001946:    205a        Z       MOVS     r0,#0x5a
        0x00001948:    f7fffab3    ....    BL       LT_WriteI2C_Byte ; 0xeb2
        0x0000194c:    2182        .!      MOVS     r1,#0x82
        0x0000194e:    205a        Z       MOVS     r0,#0x5a
        0x00001950:    f7fffaaf    ....    BL       LT_WriteI2C_Byte ; 0xeb2
        0x00001954:    2000        .       MOVS     r0,#0
        0x00001956:    9002        ..      STR      r0,[sp,#8]
        0x00001958:    9001        ..      STR      r0,[sp,#4]
        0x0000195a:    9d01        ..      LDR      r5,[sp,#4]
        0x0000195c:    4620         F      MOV      r0,r4
        0x0000195e:    17e1        ..      ASRS     r1,r4,#31
        0x00001960:    0f09        ..      LSRS     r1,r1,#28
        0x00001962:    1809        ..      ADDS     r1,r1,r0
        0x00001964:    1109        ..      ASRS     r1,r1,#4
        0x00001966:    9100        ..      STR      r1,[sp,#0]
        0x00001968:    17e1        ..      ASRS     r1,r4,#31
        0x0000196a:    0f09        ..      LSRS     r1,r1,#28
        0x0000196c:    1809        ..      ADDS     r1,r1,r0
        0x0000196e:    1109        ..      ASRS     r1,r1,#4
        0x00001970:    0109        ..      LSLS     r1,r1,#4
        0x00001972:    1a61        a.      SUBS     r1,r4,r1
        0x00001974:    d002        ..      BEQ      0x197c ; Write_Frimware + 132
        0x00001976:    9800        ..      LDR      r0,[sp,#0]
        0x00001978:    1c40        @.      ADDS     r0,r0,#1
        0x0000197a:    9000        ..      STR      r0,[sp,#0]
        0x0000197c:    2700        .'      MOVS     r7,#0
        0x0000197e:    e048        H.      B        0x1a12 ; Write_Frimware + 282
        0x00001980:    2186        .!      MOVS     r1,#0x86
        0x00001982:    205a        Z       MOVS     r0,#0x5a
        0x00001984:    f7fffa95    ....    BL       LT_WriteI2C_Byte ; 0xeb2
        0x00001988:    2182        .!      MOVS     r1,#0x82
        0x0000198a:    205a        Z       MOVS     r0,#0x5a
        0x0000198c:    f7fffa91    ....    BL       LT_WriteI2C_Byte ; 0xeb2
        0x00001990:    21ef        .!      MOVS     r1,#0xef
        0x00001992:    205e        ^       MOVS     r0,#0x5e
        0x00001994:    f7fffa8d    ....    BL       LT_WriteI2C_Byte ; 0xeb2
        0x00001998:    21a2        .!      MOVS     r1,#0xa2
        0x0000199a:    205a        Z       MOVS     r0,#0x5a
        0x0000199c:    f7fffa89    ....    BL       LT_WriteI2C_Byte ; 0xeb2
        0x000019a0:    2182        .!      MOVS     r1,#0x82
        0x000019a2:    205a        Z       MOVS     r0,#0x5a
        0x000019a4:    f7fffa85    ....    BL       LT_WriteI2C_Byte ; 0xeb2
        0x000019a8:    2101        .!      MOVS     r1,#1
        0x000019aa:    2058        X       MOVS     r0,#0x58
        0x000019ac:    f7fffa81    ....    BL       LT_WriteI2C_Byte ; 0xeb2
        0x000019b0:    0138        8.      LSLS     r0,r7,#4
        0x000019b2:    4a27        'J      LDR      r2,[pc,#156] ; [0x1a50] = 0x20000093
        0x000019b4:    1881        ..      ADDS     r1,r0,r2
        0x000019b6:    2210        ."      MOVS     r2,#0x10
        0x000019b8:    2059        Y       MOVS     r0,#0x59
        0x000019ba:    f7fffa83    ....    BL       LT_WriteI2C_ByteN ; 0xec4
        0x000019be:    4668        hF      MOV      r0,sp
        0x000019c0:    7a01        .z      LDRB     r1,[r0,#8]
        0x000019c2:    205b        [       MOVS     r0,#0x5b
        0x000019c4:    f7fffa75    ..u.    BL       LT_WriteI2C_Byte ; 0xeb2
        0x000019c8:    4668        hF      MOV      r0,sp
        0x000019ca:    7a41        Az      LDRB     r1,[r0,#9]
        0x000019cc:    205c        \       MOVS     r0,#0x5c
        0x000019ce:    f7fffa70    ..p.    BL       LT_WriteI2C_Byte ; 0xeb2
        0x000019d2:    4668        hF      MOV      r0,sp
        0x000019d4:    7a81        .z      LDRB     r1,[r0,#0xa]
        0x000019d6:    205d        ]       MOVS     r0,#0x5d
        0x000019d8:    f7fffa6b    ..k.    BL       LT_WriteI2C_Byte ; 0xeb2
        0x000019dc:    21e0        .!      MOVS     r1,#0xe0
        0x000019de:    205e        ^       MOVS     r0,#0x5e
        0x000019e0:    f7fffa67    ..g.    BL       LT_WriteI2C_Byte ; 0xeb2
        0x000019e4:    2192        .!      MOVS     r1,#0x92
        0x000019e6:    205a        Z       MOVS     r0,#0x5a
        0x000019e8:    f7fffa63    ..c.    BL       LT_WriteI2C_Byte ; 0xeb2
        0x000019ec:    2182        .!      MOVS     r1,#0x82
        0x000019ee:    205a        Z       MOVS     r0,#0x5a
        0x000019f0:    f7fffa5f    .._.    BL       LT_WriteI2C_Byte ; 0xeb2
        0x000019f4:    3510        .5      ADDS     r5,r5,#0x10
        0x000019f6:    20ff        .       MOVS     r0,#0xff
        0x000019f8:    0400        ..      LSLS     r0,r0,#16
        0x000019fa:    4028        (@      ANDS     r0,r0,r5
        0x000019fc:    1401        ..      ASRS     r1,r0,#16
        0x000019fe:    4668        hF      MOV      r0,sp
        0x00001a00:    7201        .r      STRB     r1,[r0,#8]
        0x00001a02:    20ff        .       MOVS     r0,#0xff
        0x00001a04:    0200        ..      LSLS     r0,r0,#8
        0x00001a06:    4028        (@      ANDS     r0,r0,r5
        0x00001a08:    1201        ..      ASRS     r1,r0,#8
        0x00001a0a:    4668        hF      MOV      r0,sp
        0x00001a0c:    7241        Ar      STRB     r1,[r0,#9]
        0x00001a0e:    7285        .r      STRB     r5,[r0,#0xa]
        0x00001a10:    1c7f        ..      ADDS     r7,r7,#1
        0x00001a12:    9800        ..      LDR      r0,[sp,#0]
        0x00001a14:    4287        .B      CMP      r7,r0
        0x00001a16:    dbb3        ..      BLT      0x1980 ; Write_Frimware + 136
        0x00001a18:    218a        .!      MOVS     r1,#0x8a
        0x00001a1a:    205a        Z       MOVS     r0,#0x5a
        0x00001a1c:    f7fffa49    ..I.    BL       LT_WriteI2C_Byte ; 0xeb2
        0x00001a20:    2182        .!      MOVS     r1,#0x82
        0x00001a22:    205a        Z       MOVS     r0,#0x5a
        0x00001a24:    f7fffa45    ..E.    BL       LT_WriteI2C_Byte ; 0xeb2
        0x00001a28:    bdfe        ..      POP      {r1-r7,pc}
    $d
        0x00001a2a:    0000        ..      DCW    0
        0x00001a2c:    00001904    ....    DCD    6404
        0x00001a30:    74697257    Writ    DCD    1953067607
        0x00001a34:    72465f65    e_Fr    DCD    1917214565
        0x00001a38:    61776d69    imwa    DCD    1635216745
        0x00001a3c:    44206572    re D    DCD    1142973810
        0x00001a40:    4c617461    ataL    DCD    1281455201
        0x00001a44:    3d206e65    en =    DCD    1025535589
        0x00001a48:    0a642520     %d.    DCD    174335264
        0x00001a4c:    00000000    ....    DCD    0
        0x00001a50:    20000093    ...     DCD    536871059
    $t
    i.Write_Key
    Write_Key
        0x00001a54:    b5fe        ..      PUSH     {r1-r7,lr}
        0x00001a56:    a049        I.      ADR      r0,{pc}+0x126 ; 0x1b7c
        0x00001a58:    f7fefbc0    ....    BL       __2printf ; 0x1dc
        0x00001a5c:    2180        .!      MOVS     r1,#0x80
        0x00001a5e:    20ff        .       MOVS     r0,#0xff
        0x00001a60:    f7fffa27    ..'.    BL       LT_WriteI2C_Byte ; 0xeb2
        0x00001a64:    2101        .!      MOVS     r1,#1
        0x00001a66:    20ee        .       MOVS     r0,#0xee
        0x00001a68:    f7fffa23    ..#.    BL       LT_WriteI2C_Byte ; 0xeb2
        0x00001a6c:    2190        .!      MOVS     r1,#0x90
        0x00001a6e:    20ff        .       MOVS     r0,#0xff
        0x00001a70:    f7fffa1f    ....    BL       LT_WriteI2C_Byte ; 0xeb2
        0x00001a74:    2002        .       MOVS     r0,#2
        0x00001a76:    f7fff9fb    ....    BL       LT_ReadI2C_Byte ; 0xe70
        0x00001a7a:    4605        .F      MOV      r5,r0
        0x00001a7c:    20df        .       MOVS     r0,#0xdf
        0x00001a7e:    4005        .@      ANDS     r5,r5,r0
        0x00001a80:    4629        )F      MOV      r1,r5
        0x00001a82:    2002        .       MOVS     r0,#2
        0x00001a84:    f7fffa15    ....    BL       LT_WriteI2C_Byte ; 0xeb2
        0x00001a88:    2020                MOVS     r0,#0x20
        0x00001a8a:    4305        .C      ORRS     r5,r5,r0
        0x00001a8c:    4629        )F      MOV      r1,r5
        0x00001a8e:    2002        .       MOVS     r0,#2
        0x00001a90:    f7fffa0f    ....    BL       LT_WriteI2C_Byte ; 0xeb2
        0x00001a94:    a03c        <.      ADR      r0,{pc}+0xf4 ; 0x1b88
        0x00001a96:    6800        .h      LDR      r0,[r0,#0]
        0x00001a98:    9002        ..      STR      r0,[sp,#8]
        0x00001a9a:    2180        .!      MOVS     r1,#0x80
        0x00001a9c:    20ff        .       MOVS     r0,#0xff
        0x00001a9e:    f7fffa08    ....    BL       LT_WriteI2C_Byte ; 0xeb2
        0x00001aa2:    2186        .!      MOVS     r1,#0x86
        0x00001aa4:    205a        Z       MOVS     r0,#0x5a
        0x00001aa6:    f7fffa04    ....    BL       LT_WriteI2C_Byte ; 0xeb2
        0x00001aaa:    2182        .!      MOVS     r1,#0x82
        0x00001aac:    205a        Z       MOVS     r0,#0x5a
        0x00001aae:    f7fffa00    ....    BL       LT_WriteI2C_Byte ; 0xeb2
        0x00001ab2:    2703        .'      MOVS     r7,#3
        0x00001ab4:    037f        ..      LSLS     r7,r7,#13
        0x00001ab6:    463c        <F      MOV      r4,r7
        0x00001ab8:    9701        ..      STR      r7,[sp,#4]
        0x00001aba:    2011        .       MOVS     r0,#0x11
        0x00001abc:    9000        ..      STR      r0,[sp,#0]
        0x00001abe:    9800        ..      LDR      r0,[sp,#0]
        0x00001ac0:    1c40        @.      ADDS     r0,r0,#1
        0x00001ac2:    9000        ..      STR      r0,[sp,#0]
        0x00001ac4:    2600        .&      MOVS     r6,#0
        0x00001ac6:    e04d        M.      B        0x1b64 ; Write_Key + 272
        0x00001ac8:    2186        .!      MOVS     r1,#0x86
        0x00001aca:    205a        Z       MOVS     r0,#0x5a
        0x00001acc:    f7fff9f1    ....    BL       LT_WriteI2C_Byte ; 0xeb2
        0x00001ad0:    2182        .!      MOVS     r1,#0x82
        0x00001ad2:    205a        Z       MOVS     r0,#0x5a
        0x00001ad4:    f7fff9ed    ....    BL       LT_WriteI2C_Byte ; 0xeb2
        0x00001ad8:    21ef        .!      MOVS     r1,#0xef
        0x00001ada:    205e        ^       MOVS     r0,#0x5e
        0x00001adc:    f7fff9e9    ....    BL       LT_WriteI2C_Byte ; 0xeb2
        0x00001ae0:    21a2        .!      MOVS     r1,#0xa2
        0x00001ae2:    205a        Z       MOVS     r0,#0x5a
        0x00001ae4:    f7fff9e5    ....    BL       LT_WriteI2C_Byte ; 0xeb2
        0x00001ae8:    2182        .!      MOVS     r1,#0x82
        0x00001aea:    205a        Z       MOVS     r0,#0x5a
        0x00001aec:    f7fff9e1    ....    BL       LT_WriteI2C_Byte ; 0xeb2
        0x00001af0:    2101        .!      MOVS     r1,#1
        0x00001af2:    2058        X       MOVS     r0,#0x58
        0x00001af4:    f7fff9dd    ....    BL       LT_WriteI2C_Byte ; 0xeb2
        0x00001af8:    0130        0.      LSLS     r0,r6,#4
        0x00001afa:    4a24        $J      LDR      r2,[pc,#144] ; [0x1b8c] = 0x20001997
        0x00001afc:    1881        ..      ADDS     r1,r0,r2
        0x00001afe:    2210        ."      MOVS     r2,#0x10
        0x00001b00:    2059        Y       MOVS     r0,#0x59
        0x00001b02:    f7fff9df    ....    BL       LT_WriteI2C_ByteN ; 0xec4
        0x00001b06:    2000        .       MOVS     r0,#0
        0x00001b08:    e000        ..      B        0x1b0c ; Write_Key + 184
        0x00001b0a:    1c40        @.      ADDS     r0,r0,#1
        0x00001b0c:    2810        .(      CMP      r0,#0x10
        0x00001b0e:    dbfc        ..      BLT      0x1b0a ; Write_Key + 182
        0x00001b10:    4668        hF      MOV      r0,sp
        0x00001b12:    7a01        .z      LDRB     r1,[r0,#8]
        0x00001b14:    205b        [       MOVS     r0,#0x5b
        0x00001b16:    f7fff9cc    ....    BL       LT_WriteI2C_Byte ; 0xeb2
        0x00001b1a:    4668        hF      MOV      r0,sp
        0x00001b1c:    7a41        Az      LDRB     r1,[r0,#9]
        0x00001b1e:    205c        \       MOVS     r0,#0x5c
        0x00001b20:    f7fff9c7    ....    BL       LT_WriteI2C_Byte ; 0xeb2
        0x00001b24:    4668        hF      MOV      r0,sp
        0x00001b26:    7a81        .z      LDRB     r1,[r0,#0xa]
        0x00001b28:    205d        ]       MOVS     r0,#0x5d
        0x00001b2a:    f7fff9c2    ....    BL       LT_WriteI2C_Byte ; 0xeb2
        0x00001b2e:    21e0        .!      MOVS     r1,#0xe0
        0x00001b30:    205e        ^       MOVS     r0,#0x5e
        0x00001b32:    f7fff9be    ....    BL       LT_WriteI2C_Byte ; 0xeb2
        0x00001b36:    2192        .!      MOVS     r1,#0x92
        0x00001b38:    205a        Z       MOVS     r0,#0x5a
        0x00001b3a:    f7fff9ba    ....    BL       LT_WriteI2C_Byte ; 0xeb2
        0x00001b3e:    2182        .!      MOVS     r1,#0x82
        0x00001b40:    205a        Z       MOVS     r0,#0x5a
        0x00001b42:    f7fff9b6    ....    BL       LT_WriteI2C_Byte ; 0xeb2
        0x00001b46:    3410        .4      ADDS     r4,r4,#0x10
        0x00001b48:    20ff        .       MOVS     r0,#0xff
        0x00001b4a:    0400        ..      LSLS     r0,r0,#16
        0x00001b4c:    4020         @      ANDS     r0,r0,r4
        0x00001b4e:    1401        ..      ASRS     r1,r0,#16
        0x00001b50:    4668        hF      MOV      r0,sp
        0x00001b52:    7201        .r      STRB     r1,[r0,#8]
        0x00001b54:    20ff        .       MOVS     r0,#0xff
        0x00001b56:    0200        ..      LSLS     r0,r0,#8
        0x00001b58:    4020         @      ANDS     r0,r0,r4
        0x00001b5a:    1201        ..      ASRS     r1,r0,#8
        0x00001b5c:    4668        hF      MOV      r0,sp
        0x00001b5e:    7241        Ar      STRB     r1,[r0,#9]
        0x00001b60:    7284        .r      STRB     r4,[r0,#0xa]
        0x00001b62:    1c76        v.      ADDS     r6,r6,#1
        0x00001b64:    9800        ..      LDR      r0,[sp,#0]
        0x00001b66:    4286        .B      CMP      r6,r0
        0x00001b68:    dbae        ..      BLT      0x1ac8 ; Write_Key + 116
        0x00001b6a:    218a        .!      MOVS     r1,#0x8a
        0x00001b6c:    205a        Z       MOVS     r0,#0x5a
        0x00001b6e:    f7fff9a0    ....    BL       LT_WriteI2C_Byte ; 0xeb2
        0x00001b72:    2182        .!      MOVS     r1,#0x82
        0x00001b74:    205a        Z       MOVS     r0,#0x5a
        0x00001b76:    f7fff99c    ....    BL       LT_WriteI2C_Byte ; 0xeb2
        0x00001b7a:    bdfe        ..      POP      {r1-r7,pc}
    $d
        0x00001b7c:    74697257    Writ    DCD    1953067607
        0x00001b80:    654b5f65    e_Ke    DCD    1699438437
        0x00001b84:    000a2079    y ..    DCD    663673
        0x00001b88:    00006000    .`..    DCD    24576
        0x00001b8c:    20001997    ...     DCD    536877463
    $t
    i._is_digit
    _is_digit
        0x00001b90:    3830        08      SUBS     r0,r0,#0x30
        0x00001b92:    280a        .(      CMP      r0,#0xa
        0x00001b94:    d201        ..      BCS      0x1b9a ; _is_digit + 10
        0x00001b96:    2001        .       MOVS     r0,#1
        0x00001b98:    4770        pG      BX       lr
        0x00001b9a:    2000        .       MOVS     r0,#0
        0x00001b9c:    4770        pG      BX       lr
    i.delay_ms
    delay_ms
        0x00001b9e:    b570        p.      PUSH     {r4-r6,lr}
        0x00001ba0:    4604        .F      MOV      r4,r0
        0x00001ba2:    2500        .%      MOVS     r5,#0
        0x00001ba4:    bf00        ..      NOP      
        0x00001ba6:    e004        ..      B        0x1bb2 ; delay_ms + 20
        0x00001ba8:    207d        }       MOVS     r0,#0x7d
        0x00001baa:    00c0        ..      LSLS     r0,r0,#3
        0x00001bac:    f7feffc6    ....    BL       CLK_SysTickDelay ; 0xb3c
        0x00001bb0:    1c6d        m.      ADDS     r5,r5,#1
        0x00001bb2:    42a5        .B      CMP      r5,r4
        0x00001bb4:    dbf8        ..      BLT      0x1ba8 ; delay_ms + 10
        0x00001bb6:    bd70        p.      POP      {r4-r6,pc}
    i.fputc
    fputc
        0x00001bb8:    b530        0.      PUSH     {r4,r5,lr}
        0x00001bba:    4604        .F      MOV      r4,r0
        0x00001bbc:    460d        .F      MOV      r5,r1
        0x00001bbe:    4620         F      MOV      r0,r4
        0x00001bc0:    f7fffb3a    ..:.    BL       SendChar ; 0x1238
        0x00001bc4:    4620         F      MOV      r0,r4
        0x00001bc6:    bd30        0.      POP      {r4,r5,pc}
    i.iic_ack
    iic_ack
        0x00001bc8:    b510        ..      PUSH     {r4,lr}
        0x00001bca:    2000        .       MOVS     r0,#0
        0x00001bcc:    4908        .I      LDR      r1,[pc,#32] ; [0x1bf0] = 0x50004200
        0x00001bce:    6108        .a      STR      r0,[r1,#0x10]
        0x00001bd0:    f000f810    ....    BL       iic_delay ; 0x1bf4
        0x00001bd4:    2001        .       MOVS     r0,#1
        0x00001bd6:    4906        .I      LDR      r1,[pc,#24] ; [0x1bf0] = 0x50004200
        0x00001bd8:    6148        Ha      STR      r0,[r1,#0x14]
        0x00001bda:    f000f80b    ....    BL       iic_delay ; 0x1bf4
        0x00001bde:    2000        .       MOVS     r0,#0
        0x00001be0:    4903        .I      LDR      r1,[pc,#12] ; [0x1bf0] = 0x50004200
        0x00001be2:    6148        Ha      STR      r0,[r1,#0x14]
        0x00001be4:    f000f806    ....    BL       iic_delay ; 0x1bf4
        0x00001be8:    2001        .       MOVS     r0,#1
        0x00001bea:    4901        .I      LDR      r1,[pc,#4] ; [0x1bf0] = 0x50004200
        0x00001bec:    6108        .a      STR      r0,[r1,#0x10]
        0x00001bee:    bd10        ..      POP      {r4,pc}
    $d
        0x00001bf0:    50004200    .B.P    DCD    1342194176
    $t
    i.iic_delay
    iic_delay
        0x00001bf4:    2006        .       MOVS     r0,#6
        0x00001bf6:    bf00        ..      NOP      
        0x00001bf8:    4601        .F      MOV      r1,r0
        0x00001bfa:    1e42        B.      SUBS     r2,r0,#1
        0x00001bfc:    b2d0        ..      UXTB     r0,r2
        0x00001bfe:    2900        .)      CMP      r1,#0
        0x00001c00:    d1fa        ..      BNE      0x1bf8 ; iic_delay + 4
        0x00001c02:    4770        pG      BX       lr
    i.iic_nack
    iic_nack
        0x00001c04:    b510        ..      PUSH     {r4,lr}
        0x00001c06:    2001        .       MOVS     r0,#1
        0x00001c08:    4907        .I      LDR      r1,[pc,#28] ; [0x1c28] = 0x50004200
        0x00001c0a:    6108        .a      STR      r0,[r1,#0x10]
        0x00001c0c:    f7fffff2    ....    BL       iic_delay ; 0x1bf4
        0x00001c10:    2001        .       MOVS     r0,#1
        0x00001c12:    4905        .I      LDR      r1,[pc,#20] ; [0x1c28] = 0x50004200
        0x00001c14:    6148        Ha      STR      r0,[r1,#0x14]
        0x00001c16:    f7ffffed    ....    BL       iic_delay ; 0x1bf4
        0x00001c1a:    2000        .       MOVS     r0,#0
        0x00001c1c:    4902        .I      LDR      r1,[pc,#8] ; [0x1c28] = 0x50004200
        0x00001c1e:    6148        Ha      STR      r0,[r1,#0x14]
        0x00001c20:    f7ffffe8    ....    BL       iic_delay ; 0x1bf4
        0x00001c24:    bd10        ..      POP      {r4,pc}
    $d
        0x00001c26:    0000        ..      DCW    0
        0x00001c28:    50004200    .B.P    DCD    1342194176
    $t
    i.iic_read_byte
    iic_read_byte
        0x00001c2c:    b5ff        ..      PUSH     {r0-r7,lr}
        0x00001c2e:    b081        ..      SUB      sp,sp,#4
        0x00001c30:    4606        .F      MOV      r6,r0
        0x00001c32:    4614        .F      MOV      r4,r2
        0x00001c34:    461f        .F      MOV      r7,r3
        0x00001c36:    f000f899    ....    BL       iic_start ; 0x1d6c
        0x00001c3a:    4630        0F      MOV      r0,r6
        0x00001c3c:    f000f858    ..X.    BL       iic_sendbyte ; 0x1cf0
        0x00001c40:    9802        ..      LDR      r0,[sp,#8]
        0x00001c42:    f000f855    ..U.    BL       iic_sendbyte ; 0x1cf0
        0x00001c46:    f7ffffd5    ....    BL       iic_delay ; 0x1bf4
        0x00001c4a:    2000        .       MOVS     r0,#0
        0x00001c4c:    4913        .I      LDR      r1,[pc,#76] ; [0x1c9c] = 0x50004200
        0x00001c4e:    6148        Ha      STR      r0,[r1,#0x14]
        0x00001c50:    f7ffffd0    ....    BL       iic_delay ; 0x1bf4
        0x00001c54:    f7ffffce    ....    BL       iic_delay ; 0x1bf4
        0x00001c58:    f000f888    ....    BL       iic_start ; 0x1d6c
        0x00001c5c:    1c71        q.      ADDS     r1,r6,#1
        0x00001c5e:    b2c8        ..      UXTB     r0,r1
        0x00001c60:    f000f846    ..F.    BL       iic_sendbyte ; 0x1cf0
        0x00001c64:    480e        .H      LDR      r0,[pc,#56] ; [0x1ca0] = 0x20000092
        0x00001c66:    7800        .x      LDRB     r0,[r0,#0]
        0x00001c68:    2800        .(      CMP      r0,#0
        0x00001c6a:    d100        ..      BNE      0x1c6e ; iic_read_byte + 66
        0x00001c6c:    7020         p      STRB     r0,[r4,#0]
        0x00001c6e:    2500        .%      MOVS     r5,#0
        0x00001c70:    e007        ..      B        0x1c82 ; iic_read_byte + 86
        0x00001c72:    f000f817    ....    BL       iic_readbyte ; 0x1ca4
        0x00001c76:    7020         p      STRB     r0,[r4,#0]
        0x00001c78:    f7ffffa6    ....    BL       iic_ack ; 0x1bc8
        0x00001c7c:    1c64        d.      ADDS     r4,r4,#1
        0x00001c7e:    1c68        h.      ADDS     r0,r5,#1
        0x00001c80:    b285        ..      UXTH     r5,r0
        0x00001c82:    1e78        x.      SUBS     r0,r7,#1
        0x00001c84:    42a8        .B      CMP      r0,r5
        0x00001c86:    dcf4        ..      BGT      0x1c72 ; iic_read_byte + 70
        0x00001c88:    f000f80c    ....    BL       iic_readbyte ; 0x1ca4
        0x00001c8c:    7020         p      STRB     r0,[r4,#0]
        0x00001c8e:    f7ffffb9    ....    BL       iic_nack ; 0x1c04
        0x00001c92:    f000f87f    ....    BL       iic_stop ; 0x1d94
        0x00001c96:    2001        .       MOVS     r0,#1
        0x00001c98:    b005        ..      ADD      sp,sp,#0x14
        0x00001c9a:    bdf0        ..      POP      {r4-r7,pc}
    $d
        0x00001c9c:    50004200    .B.P    DCD    1342194176
        0x00001ca0:    20000092    ...     DCD    536871058
    $t
    i.iic_readbyte
    iic_readbyte
        0x00001ca4:    b570        p.      PUSH     {r4-r6,lr}
        0x00001ca6:    2400        .$      MOVS     r4,#0
        0x00001ca8:    2001        .       MOVS     r0,#1
        0x00001caa:    4910        .I      LDR      r1,[pc,#64] ; [0x1cec] = 0x50004200
        0x00001cac:    6108        .a      STR      r0,[r1,#0x10]
        0x00001cae:    2500        .%      MOVS     r5,#0
        0x00001cb0:    e013        ..      B        0x1cda ; iic_readbyte + 54
        0x00001cb2:    2000        .       MOVS     r0,#0
        0x00001cb4:    490d        .I      LDR      r1,[pc,#52] ; [0x1cec] = 0x50004200
        0x00001cb6:    6148        Ha      STR      r0,[r1,#0x14]
        0x00001cb8:    f7ffff9c    ....    BL       iic_delay ; 0x1bf4
        0x00001cbc:    2001        .       MOVS     r0,#1
        0x00001cbe:    490b        .I      LDR      r1,[pc,#44] ; [0x1cec] = 0x50004200
        0x00001cc0:    6148        Ha      STR      r0,[r1,#0x14]
        0x00001cc2:    0660        `.      LSLS     r0,r4,#25
        0x00001cc4:    0e04        ..      LSRS     r4,r0,#24
        0x00001cc6:    4608        .F      MOV      r0,r1
        0x00001cc8:    6900        .i      LDR      r0,[r0,#0x10]
        0x00001cca:    2800        .(      CMP      r0,#0
        0x00001ccc:    d001        ..      BEQ      0x1cd2 ; iic_readbyte + 46
        0x00001cce:    2001        .       MOVS     r0,#1
        0x00001cd0:    4304        .C      ORRS     r4,r4,r0
        0x00001cd2:    f7ffff8f    ....    BL       iic_delay ; 0x1bf4
        0x00001cd6:    1c68        h.      ADDS     r0,r5,#1
        0x00001cd8:    b2c5        ..      UXTB     r5,r0
        0x00001cda:    2d08        .-      CMP      r5,#8
        0x00001cdc:    dbe9        ..      BLT      0x1cb2 ; iic_readbyte + 14
        0x00001cde:    2000        .       MOVS     r0,#0
        0x00001ce0:    4902        .I      LDR      r1,[pc,#8] ; [0x1cec] = 0x50004200
        0x00001ce2:    6148        Ha      STR      r0,[r1,#0x14]
        0x00001ce4:    f7ffff86    ....    BL       iic_delay ; 0x1bf4
        0x00001ce8:    4620         F      MOV      r0,r4
        0x00001cea:    bd70        p.      POP      {r4-r6,pc}
    $d
        0x00001cec:    50004200    .B.P    DCD    1342194176
    $t
    i.iic_sendbyte
    iic_sendbyte
        0x00001cf0:    b570        p.      PUSH     {r4-r6,lr}
        0x00001cf2:    4605        .F      MOV      r5,r0
        0x00001cf4:    2400        .$      MOVS     r4,#0
        0x00001cf6:    e018        ..      B        0x1d2a ; iic_sendbyte + 58
        0x00001cf8:    2000        .       MOVS     r0,#0
        0x00001cfa:    491a        .I      LDR      r1,[pc,#104] ; [0x1d64] = 0x50004200
        0x00001cfc:    6148        Ha      STR      r0,[r1,#0x14]
        0x00001cfe:    4628        (F      MOV      r0,r5
        0x00001d00:    40a0        .@      LSLS     r0,r0,r4
        0x00001d02:    2180        .!      MOVS     r1,#0x80
        0x00001d04:    4008        .@      ANDS     r0,r0,r1
        0x00001d06:    2800        .(      CMP      r0,#0
        0x00001d08:    d003        ..      BEQ      0x1d12 ; iic_sendbyte + 34
        0x00001d0a:    2001        .       MOVS     r0,#1
        0x00001d0c:    4915        .I      LDR      r1,[pc,#84] ; [0x1d64] = 0x50004200
        0x00001d0e:    6108        .a      STR      r0,[r1,#0x10]
        0x00001d10:    e002        ..      B        0x1d18 ; iic_sendbyte + 40
        0x00001d12:    2000        .       MOVS     r0,#0
        0x00001d14:    4913        .I      LDR      r1,[pc,#76] ; [0x1d64] = 0x50004200
        0x00001d16:    6108        .a      STR      r0,[r1,#0x10]
        0x00001d18:    f7ffff6c    ..l.    BL       iic_delay ; 0x1bf4
        0x00001d1c:    2001        .       MOVS     r0,#1
        0x00001d1e:    4911        .I      LDR      r1,[pc,#68] ; [0x1d64] = 0x50004200
        0x00001d20:    6148        Ha      STR      r0,[r1,#0x14]
        0x00001d22:    f7ffff67    ..g.    BL       iic_delay ; 0x1bf4
        0x00001d26:    1c60        `.      ADDS     r0,r4,#1
        0x00001d28:    b2c4        ..      UXTB     r4,r0
        0x00001d2a:    2c08        .,      CMP      r4,#8
        0x00001d2c:    dbe4        ..      BLT      0x1cf8 ; iic_sendbyte + 8
        0x00001d2e:    2000        .       MOVS     r0,#0
        0x00001d30:    490c        .I      LDR      r1,[pc,#48] ; [0x1d64] = 0x50004200
        0x00001d32:    6148        Ha      STR      r0,[r1,#0x14]
        0x00001d34:    f7ffff5e    ..^.    BL       iic_delay ; 0x1bf4
        0x00001d38:    2001        .       MOVS     r0,#1
        0x00001d3a:    490a        .I      LDR      r1,[pc,#40] ; [0x1d64] = 0x50004200
        0x00001d3c:    6108        .a      STR      r0,[r1,#0x10]
        0x00001d3e:    f7ffff59    ..Y.    BL       iic_delay ; 0x1bf4
        0x00001d42:    2001        .       MOVS     r0,#1
        0x00001d44:    4907        .I      LDR      r1,[pc,#28] ; [0x1d64] = 0x50004200
        0x00001d46:    6148        Ha      STR      r0,[r1,#0x14]
        0x00001d48:    f7ffff54    ..T.    BL       iic_delay ; 0x1bf4
        0x00001d4c:    4805        .H      LDR      r0,[pc,#20] ; [0x1d64] = 0x50004200
        0x00001d4e:    6900        .i      LDR      r0,[r0,#0x10]
        0x00001d50:    2800        .(      CMP      r0,#0
        0x00001d52:    d003        ..      BEQ      0x1d5c ; iic_sendbyte + 108
        0x00001d54:    2000        .       MOVS     r0,#0
        0x00001d56:    4904        .I      LDR      r1,[pc,#16] ; [0x1d68] = 0x20000092
        0x00001d58:    7008        .p      STRB     r0,[r1,#0]
        0x00001d5a:    e002        ..      B        0x1d62 ; iic_sendbyte + 114
        0x00001d5c:    2001        .       MOVS     r0,#1
        0x00001d5e:    4902        .I      LDR      r1,[pc,#8] ; [0x1d68] = 0x20000092
        0x00001d60:    7008        .p      STRB     r0,[r1,#0]
        0x00001d62:    bd70        p.      POP      {r4-r6,pc}
    $d
        0x00001d64:    50004200    .B.P    DCD    1342194176
        0x00001d68:    20000092    ...     DCD    536871058
    $t
    i.iic_start
    iic_start
        0x00001d6c:    b510        ..      PUSH     {r4,lr}
        0x00001d6e:    2001        .       MOVS     r0,#1
        0x00001d70:    4907        .I      LDR      r1,[pc,#28] ; [0x1d90] = 0x50004200
        0x00001d72:    6148        Ha      STR      r0,[r1,#0x14]
        0x00001d74:    6108        .a      STR      r0,[r1,#0x10]
        0x00001d76:    f7ffff3d    ..=.    BL       iic_delay ; 0x1bf4
        0x00001d7a:    2000        .       MOVS     r0,#0
        0x00001d7c:    4904        .I      LDR      r1,[pc,#16] ; [0x1d90] = 0x50004200
        0x00001d7e:    6108        .a      STR      r0,[r1,#0x10]
        0x00001d80:    f7ffff38    ..8.    BL       iic_delay ; 0x1bf4
        0x00001d84:    2000        .       MOVS     r0,#0
        0x00001d86:    4902        .I      LDR      r1,[pc,#8] ; [0x1d90] = 0x50004200
        0x00001d88:    6148        Ha      STR      r0,[r1,#0x14]
        0x00001d8a:    f7ffff33    ..3.    BL       iic_delay ; 0x1bf4
        0x00001d8e:    bd10        ..      POP      {r4,pc}
    $d
        0x00001d90:    50004200    .B.P    DCD    1342194176
    $t
    i.iic_stop
    iic_stop
        0x00001d94:    b510        ..      PUSH     {r4,lr}
        0x00001d96:    2000        .       MOVS     r0,#0
        0x00001d98:    4909        .I      LDR      r1,[pc,#36] ; [0x1dc0] = 0x50004200
        0x00001d9a:    6148        Ha      STR      r0,[r1,#0x14]
        0x00001d9c:    f7ffff2a    ..*.    BL       iic_delay ; 0x1bf4
        0x00001da0:    2000        .       MOVS     r0,#0
        0x00001da2:    4907        .I      LDR      r1,[pc,#28] ; [0x1dc0] = 0x50004200
        0x00001da4:    6108        .a      STR      r0,[r1,#0x10]
        0x00001da6:    f7ffff25    ..%.    BL       iic_delay ; 0x1bf4
        0x00001daa:    2001        .       MOVS     r0,#1
        0x00001dac:    4904        .I      LDR      r1,[pc,#16] ; [0x1dc0] = 0x50004200
        0x00001dae:    6148        Ha      STR      r0,[r1,#0x14]
        0x00001db0:    f7ffff20    .. .    BL       iic_delay ; 0x1bf4
        0x00001db4:    2001        .       MOVS     r0,#1
        0x00001db6:    4902        .I      LDR      r1,[pc,#8] ; [0x1dc0] = 0x50004200
        0x00001db8:    6108        .a      STR      r0,[r1,#0x10]
        0x00001dba:    f7ffff1b    ....    BL       iic_delay ; 0x1bf4
        0x00001dbe:    bd10        ..      POP      {r4,pc}
    $d
        0x00001dc0:    50004200    .B.P    DCD    1342194176
    $t
    i.iic_write_byte
    iic_write_byte
        0x00001dc4:    b5ff        ..      PUSH     {r0-r7,lr}
        0x00001dc6:    b081        ..      SUB      sp,sp,#4
        0x00001dc8:    460d        .F      MOV      r5,r1
        0x00001dca:    4614        .F      MOV      r4,r2
        0x00001dcc:    461e        .F      MOV      r6,r3
        0x00001dce:    f7ffffcd    ....    BL       iic_start ; 0x1d6c
        0x00001dd2:    9801        ..      LDR      r0,[sp,#4]
        0x00001dd4:    f7ffff8c    ....    BL       iic_sendbyte ; 0x1cf0
        0x00001dd8:    4628        (F      MOV      r0,r5
        0x00001dda:    f7ffff89    ....    BL       iic_sendbyte ; 0x1cf0
        0x00001dde:    2700        .'      MOVS     r7,#0
        0x00001de0:    e005        ..      B        0x1dee ; iic_write_byte + 42
        0x00001de2:    7820         x      LDRB     r0,[r4,#0]
        0x00001de4:    f7ffff84    ....    BL       iic_sendbyte ; 0x1cf0
        0x00001de8:    1c64        d.      ADDS     r4,r4,#1
        0x00001dea:    1c78        x.      ADDS     r0,r7,#1
        0x00001dec:    b287        ..      UXTH     r7,r0
        0x00001dee:    42b7        .B      CMP      r7,r6
        0x00001df0:    dbf7        ..      BLT      0x1de2 ; iic_write_byte + 30
        0x00001df2:    f7ffffcf    ....    BL       iic_stop ; 0x1d94
        0x00001df6:    2001        .       MOVS     r0,#1
        0x00001df8:    b005        ..      ADD      sp,sp,#0x14
        0x00001dfa:    bdf0        ..      POP      {r4-r7,pc}
    i.main
    main
        0x00001dfc:    b508        ..      PUSH     {r3,lr}
        0x00001dfe:    2400        .$      MOVS     r4,#0
        0x00001e00:    f7fff9d2    ....    BL       SYS_Init ; 0x11a8
        0x00001e04:    21e1        .!      MOVS     r1,#0xe1
        0x00001e06:    0249        I.      LSLS     r1,r1,#9
        0x00001e08:    4819        .H      LDR      r0,[pc,#100] ; [0x1e70] = 0x40050000
        0x00001e0a:    f7fffc43    ..C.    BL       UART_Open ; 0x1694
        0x00001e0e:    4819        .H      LDR      r0,[pc,#100] ; [0x1e74] = 0x20f4
        0x00001e10:    f7fef9e4    ....    BL       __2printf ; 0x1dc
        0x00001e14:    4818        .H      LDR      r0,[pc,#96] ; [0x1e78] = 0x2190
        0x00001e16:    f7fef9e1    ....    BL       __2printf ; 0x1dc
        0x00001e1a:    4818        .H      LDR      r0,[pc,#96] ; [0x1e7c] = 0x2144
        0x00001e1c:    f7fef9de    ....    BL       __2printf ; 0x1dc
        0x00001e20:    f7feff6a    ..j.    BL       Ecx335af_spi2_init ; 0xcf8
        0x00001e24:    4816        .H      LDR      r0,[pc,#88] ; [0x1e80] = 0xc3500
        0x00001e26:    2308        .#      MOVS     r3,#8
        0x00001e28:    4a16        .J      LDR      r2,[pc,#88] ; [0x1e84] = 0x804
        0x00001e2a:    2100        .!      MOVS     r1,#0
        0x00001e2c:    9000        ..      STR      r0,[sp,#0]
        0x00001e2e:    4816        .H      LDR      r0,[pc,#88] ; [0x1e88] = 0x400d0000
        0x00001e30:    f7fff952    ..R.    BL       SPI_Open ; 0x10d8
        0x00001e34:    4814        .H      LDR      r0,[pc,#80] ; [0x1e88] = 0x400d0000
        0x00001e36:    6800        .h      LDR      r0,[r0,#0]
        0x00001e38:    2101        .!      MOVS     r1,#1
        0x00001e3a:    0289        ..      LSLS     r1,r1,#10
        0x00001e3c:    4308        .C      ORRS     r0,r0,r1
        0x00001e3e:    4912        .I      LDR      r1,[pc,#72] ; [0x1e88] = 0x400d0000
        0x00001e40:    6008        .`      STR      r0,[r1,#0]
        0x00001e42:    f7feff9d    ....    BL       GPIO_Init ; 0xd80
        0x00001e46:    f7feff27    ..'.    BL       Ecx335af_Power_On ; 0xc98
        0x00001e4a:    f7fff903    ....    BL       Read_Ecx335af_reg ; 0x1054
        0x00001e4e:    a00f        ..      ADR      r0,{pc}+0x3e ; 0x1e8c
        0x00001e50:    f7fef9c4    ....    BL       __2printf ; 0x1dc
        0x00001e54:    f7feffe8    ....    BL       LT7211_Firmware_Upgrade ; 0xe28
        0x00001e58:    2c00        .,      CMP      r4,#0
        0x00001e5a:    d103        ..      BNE      0x1e64 ; main + 104
        0x00001e5c:    a00b        ..      ADR      r0,{pc}+0x30 ; 0x1e8c
        0x00001e5e:    f7fef9bd    ....    BL       __2printf ; 0x1dc
        0x00001e62:    e002        ..      B        0x1e6a ; main + 110
        0x00001e64:    a00b        ..      ADR      r0,{pc}+0x30 ; 0x1e94
        0x00001e66:    f7fef9b9    ....    BL       __2printf ; 0x1dc
        0x00001e6a:    bf00        ..      NOP      
        0x00001e6c:    e7fe        ..      B        0x1e6c ; main + 112
    $d
        0x00001e6e:    0000        ..      DCW    0
        0x00001e70:    40050000    ...@    DCD    1074069504
        0x00001e74:    000020f4    . ..    DCD    8436
        0x00001e78:    00002190    .!..    DCD    8592
        0x00001e7c:    00002144    D!..    DCD    8516
        0x00001e80:    000c3500    .5..    DCD    800000
        0x00001e84:    00000804    ....    DCD    2052
        0x00001e88:    400d0000    ...@    DCD    1074593792
        0x00001e8c:    5d4b4f5b    [OK]    DCD    1565216603
        0x00001e90:    0000000a    ....    DCD    10
        0x00001e94:    4941465b    [FAI    DCD    1229014619
        0x00001e98:    000a5d4c    L]..    DCD    679244
    $t
    i.stackDump
    stackDump
        0x00001e9c:    b510        ..      PUSH     {r4,lr}
        0x00001e9e:    4604        .F      MOV      r4,r0
        0x00001ea0:    a010        ..      ADR      r0,{pc}+0x44 ; 0x1ee4
        0x00001ea2:    6821        !h      LDR      r1,[r4,#0]
        0x00001ea4:    f7fef99a    ....    BL       __2printf ; 0x1dc
        0x00001ea8:    a011        ..      ADR      r0,{pc}+0x48 ; 0x1ef0
        0x00001eaa:    6861        ah      LDR      r1,[r4,#4]
        0x00001eac:    f7fef996    ....    BL       __2printf ; 0x1dc
        0x00001eb0:    a012        ..      ADR      r0,{pc}+0x4c ; 0x1efc
        0x00001eb2:    68a1        .h      LDR      r1,[r4,#8]
        0x00001eb4:    f7fef992    ....    BL       __2printf ; 0x1dc
        0x00001eb8:    a013        ..      ADR      r0,{pc}+0x50 ; 0x1f08
        0x00001eba:    68e1        .h      LDR      r1,[r4,#0xc]
        0x00001ebc:    f7fef98e    ....    BL       __2printf ; 0x1dc
        0x00001ec0:    a014        ..      ADR      r0,{pc}+0x54 ; 0x1f14
        0x00001ec2:    6921        !i      LDR      r1,[r4,#0x10]
        0x00001ec4:    f7fef98a    ....    BL       __2printf ; 0x1dc
        0x00001ec8:    a015        ..      ADR      r0,{pc}+0x58 ; 0x1f20
        0x00001eca:    6961        ai      LDR      r1,[r4,#0x14]
        0x00001ecc:    f7fef986    ....    BL       __2printf ; 0x1dc
        0x00001ed0:    a016        ..      ADR      r0,{pc}+0x5c ; 0x1f2c
        0x00001ed2:    69a1        .i      LDR      r1,[r4,#0x18]
        0x00001ed4:    f7fef982    ....    BL       __2printf ; 0x1dc
        0x00001ed8:    a017        ..      ADR      r0,{pc}+0x60 ; 0x1f38
        0x00001eda:    69e1        .i      LDR      r1,[r4,#0x1c]
        0x00001edc:    f7fef97e    ..~.    BL       __2printf ; 0x1dc
        0x00001ee0:    bd10        ..      POP      {r4,pc}
    $d
        0x00001ee2:    0000        ..      DCW    0
        0x00001ee4:    20203072    r0      DCD    538980466
        0x00001ee8:    7830203d    = 0x    DCD    2016419901
        0x00001eec:    000a7825    %x..    DCD    686117
        0x00001ef0:    20203172    r1      DCD    538980722
        0x00001ef4:    7830203d    = 0x    DCD    2016419901
        0x00001ef8:    000a7825    %x..    DCD    686117
        0x00001efc:    20203272    r2      DCD    538980978
        0x00001f00:    7830203d    = 0x    DCD    2016419901
        0x00001f04:    000a7825    %x..    DCD    686117
        0x00001f08:    20203372    r3      DCD    538981234
        0x00001f0c:    7830203d    = 0x    DCD    2016419901
        0x00001f10:    000a7825    %x..    DCD    686117
        0x00001f14:    20323172    r12     DCD    540160370
        0x00001f18:    7830203d    = 0x    DCD    2016419901
        0x00001f1c:    000a7825    %x..    DCD    686117
        0x00001f20:    2020726c    lr      DCD    538997356
        0x00001f24:    7830203d    = 0x    DCD    2016419901
        0x00001f28:    000a7825    %x..    DCD    686117
        0x00001f2c:    20206370    pc      DCD    538993520
        0x00001f30:    7830203d    = 0x    DCD    2016419901
        0x00001f34:    000a7825    %x..    DCD    686117
        0x00001f38:    20727370    psr     DCD    544371568
        0x00001f3c:    7830203d    = 0x    DCD    2016419901
        0x00001f40:    000a7825    %x..    DCD    686117
    $t
    i.step_1
    step_1
        0x00001f44:    b510        ..      PUSH     {r4,lr}
        0x00001f46:    2140        @!      MOVS     r1,#0x40
        0x00001f48:    2002        .       MOVS     r0,#2
        0x00001f4a:    f7fffac3    ....    BL       Spi_WriteReg_1 ; 0x14d4
        0x00001f4e:    215f        _!      MOVS     r1,#0x5f
        0x00001f50:    2004        .       MOVS     r0,#4
        0x00001f52:    f7fffabf    ....    BL       Spi_WriteReg_1 ; 0x14d4
        0x00001f56:    2104        .!      MOVS     r1,#4
        0x00001f58:    206d        m       MOVS     r0,#0x6d
        0x00001f5a:    f7fffabb    ....    BL       Spi_WriteReg_1 ; 0x14d4
        0x00001f5e:    2103        .!      MOVS     r1,#3
        0x00001f60:    206f        o       MOVS     r0,#0x6f
        0x00001f62:    f7fffab7    ....    BL       Spi_WriteReg_1 ; 0x14d4
        0x00001f66:    214e        N!      MOVS     r1,#0x4e
        0x00001f68:    2071        q       MOVS     r0,#0x71
        0x00001f6a:    f7fffab3    ....    BL       Spi_WriteReg_1 ; 0x14d4
        0x00001f6e:    214e        N!      MOVS     r1,#0x4e
        0x00001f70:    2072        r       MOVS     r0,#0x72
        0x00001f72:    f7fffaaf    ....    BL       Spi_WriteReg_1 ; 0x14d4
        0x00001f76:    2001        .       MOVS     r0,#1
        0x00001f78:    f7fffe11    ....    BL       delay_ms ; 0x1b9e
        0x00001f7c:    2140        @!      MOVS     r1,#0x40
        0x00001f7e:    2002        .       MOVS     r0,#2
        0x00001f80:    f7fffad8    ....    BL       Spi_WriteReg_2 ; 0x1534
        0x00001f84:    215f        _!      MOVS     r1,#0x5f
        0x00001f86:    2004        .       MOVS     r0,#4
        0x00001f88:    f7fffad4    ....    BL       Spi_WriteReg_2 ; 0x1534
        0x00001f8c:    2104        .!      MOVS     r1,#4
        0x00001f8e:    206d        m       MOVS     r0,#0x6d
        0x00001f90:    f7fffad0    ....    BL       Spi_WriteReg_2 ; 0x1534
        0x00001f94:    2103        .!      MOVS     r1,#3
        0x00001f96:    206f        o       MOVS     r0,#0x6f
        0x00001f98:    f7fffacc    ....    BL       Spi_WriteReg_2 ; 0x1534
        0x00001f9c:    214e        N!      MOVS     r1,#0x4e
        0x00001f9e:    2071        q       MOVS     r0,#0x71
        0x00001fa0:    f7fffac8    ....    BL       Spi_WriteReg_2 ; 0x1534
        0x00001fa4:    214e        N!      MOVS     r1,#0x4e
        0x00001fa6:    2072        r       MOVS     r0,#0x72
        0x00001fa8:    f7fffac4    ....    BL       Spi_WriteReg_2 ; 0x1534
        0x00001fac:    bd10        ..      POP      {r4,pc}
    i.step_2
    step_2
        0x00001fae:    b510        ..      PUSH     {r4,lr}
        0x00001fb0:    210f        .!      MOVS     r1,#0xf
        0x00001fb2:    2000        .       MOVS     r0,#0
        0x00001fb4:    f7fffa8e    ....    BL       Spi_WriteReg_1 ; 0x14d4
        0x00001fb8:    2001        .       MOVS     r0,#1
        0x00001fba:    f7fffdf0    ....    BL       delay_ms ; 0x1b9e
        0x00001fbe:    210f        .!      MOVS     r1,#0xf
        0x00001fc0:    2000        .       MOVS     r0,#0
        0x00001fc2:    f7fffab7    ....    BL       Spi_WriteReg_2 ; 0x1534
        0x00001fc6:    bd10        ..      POP      {r4,pc}
    i.step_3
    step_3
        0x00001fc8:    b510        ..      PUSH     {r4,lr}
        0x00001fca:    2101        .!      MOVS     r1,#1
        0x00001fcc:    4608        .F      MOV      r0,r1
        0x00001fce:    f7fffa81    ....    BL       Spi_WriteReg_1 ; 0x14d4
        0x00001fd2:    2001        .       MOVS     r0,#1
        0x00001fd4:    f7fffde3    ....    BL       delay_ms ; 0x1b9e
        0x00001fd8:    2101        .!      MOVS     r1,#1
        0x00001fda:    4608        .F      MOV      r0,r1
        0x00001fdc:    f7fffaaa    ....    BL       Spi_WriteReg_2 ; 0x1534
        0x00001fe0:    bd10        ..      POP      {r4,pc}
    i.step_4
    step_4
        0x00001fe2:    b510        ..      PUSH     {r4,lr}
        0x00001fe4:    213f        ?!      MOVS     r1,#0x3f
        0x00001fe6:    2004        .       MOVS     r0,#4
        0x00001fe8:    f7fffa74    ..t.    BL       Spi_WriteReg_1 ; 0x14d4
        0x00001fec:    2001        .       MOVS     r0,#1
        0x00001fee:    f7fffdd6    ....    BL       delay_ms ; 0x1b9e
        0x00001ff2:    213f        ?!      MOVS     r1,#0x3f
        0x00001ff4:    2004        .       MOVS     r0,#4
        0x00001ff6:    f7fffa9d    ....    BL       Spi_WriteReg_2 ; 0x1534
        0x00001ffa:    bd10        ..      POP      {r4,pc}
    i.step_5
    step_5
        0x00001ffc:    b510        ..      PUSH     {r4,lr}
        0x00001ffe:    2146        F!      MOVS     r1,#0x46
        0x00002000:    2071        q       MOVS     r0,#0x71
        0x00002002:    f7fffa67    ..g.    BL       Spi_WriteReg_1 ; 0x14d4
        0x00002006:    2146        F!      MOVS     r1,#0x46
        0x00002008:    2072        r       MOVS     r0,#0x72
        0x0000200a:    f7fffa63    ..c.    BL       Spi_WriteReg_1 ; 0x14d4
        0x0000200e:    2001        .       MOVS     r0,#1
        0x00002010:    f7fffdc5    ....    BL       delay_ms ; 0x1b9e
        0x00002014:    2146        F!      MOVS     r1,#0x46
        0x00002016:    2071        q       MOVS     r0,#0x71
        0x00002018:    f7fffa8c    ....    BL       Spi_WriteReg_2 ; 0x1534
        0x0000201c:    2146        F!      MOVS     r1,#0x46
        0x0000201e:    2072        r       MOVS     r0,#0x72
        0x00002020:    f7fffa88    ....    BL       Spi_WriteReg_2 ; 0x1534
        0x00002024:    bd10        ..      POP      {r4,pc}
    i.step_6
    step_6
        0x00002026:    b510        ..      PUSH     {r4,lr}
        0x00002028:    2100        .!      MOVS     r1,#0
        0x0000202a:    206d        m       MOVS     r0,#0x6d
        0x0000202c:    f7fffa52    ..R.    BL       Spi_WriteReg_1 ; 0x14d4
        0x00002030:    2100        .!      MOVS     r1,#0
        0x00002032:    206f        o       MOVS     r0,#0x6f
        0x00002034:    f7fffa4e    ..N.    BL       Spi_WriteReg_1 ; 0x14d4
        0x00002038:    2100        .!      MOVS     r1,#0
        0x0000203a:    2071        q       MOVS     r0,#0x71
        0x0000203c:    f7fffa4a    ..J.    BL       Spi_WriteReg_1 ; 0x14d4
        0x00002040:    2100        .!      MOVS     r1,#0
        0x00002042:    2072        r       MOVS     r0,#0x72
        0x00002044:    f7fffa46    ..F.    BL       Spi_WriteReg_1 ; 0x14d4
        0x00002048:    2001        .       MOVS     r0,#1
        0x0000204a:    f7fffda8    ....    BL       delay_ms ; 0x1b9e
        0x0000204e:    2100        .!      MOVS     r1,#0
        0x00002050:    206d        m       MOVS     r0,#0x6d
        0x00002052:    f7fffa6f    ..o.    BL       Spi_WriteReg_2 ; 0x1534
        0x00002056:    2100        .!      MOVS     r1,#0
        0x00002058:    206f        o       MOVS     r0,#0x6f
        0x0000205a:    f7fffa6b    ..k.    BL       Spi_WriteReg_2 ; 0x1534
        0x0000205e:    2100        .!      MOVS     r1,#0
        0x00002060:    2071        q       MOVS     r0,#0x71
        0x00002062:    f7fffa67    ..g.    BL       Spi_WriteReg_2 ; 0x1534
        0x00002066:    2100        .!      MOVS     r1,#0
        0x00002068:    2072        r       MOVS     r0,#0x72
        0x0000206a:    f7fffa63    ..c.    BL       Spi_WriteReg_2 ; 0x1534
        0x0000206e:    bd10        ..      POP      {r4,pc}
    i.step_6_1
    step_6_1
        0x00002070:    b510        ..      PUSH     {r4,lr}
        0x00002072:    2120         !      MOVS     r1,#0x20
        0x00002074:    2003        .       MOVS     r0,#3
        0x00002076:    f7fffa2d    ..-.    BL       Spi_WriteReg_1 ; 0x14d4
        0x0000207a:    2001        .       MOVS     r0,#1
        0x0000207c:    f7fffd8f    ....    BL       delay_ms ; 0x1b9e
        0x00002080:    2120         !      MOVS     r1,#0x20
        0x00002082:    2003        .       MOVS     r0,#3
        0x00002084:    f7fffa56    ..V.    BL       Spi_WriteReg_2 ; 0x1534
        0x00002088:    bd10        ..      POP      {r4,pc}
        0x0000208a:    0000        ..      MOVS     r0,r0
    $d.realdata
    .constdata
        0x0000208c:    00000002    ....    DCD    2
        0x00002090:    00000004    ....    DCD    4
        0x00002094:    00000008    ....    DCD    8
        0x00002098:    00000010    ....    DCD    16
    .constdata
        0x0000209c:    00b71b00    ....    DCD    12000000
        0x000020a0:    00008000    ....    DCD    32768
        0x000020a4:    00000000    ....    DCD    0
        0x000020a8:    00b71b00    ....    DCD    12000000
        0x000020ac:    00b71b00    ....    DCD    12000000
        0x000020b0:    00008000    ....    DCD    32768
        0x000020b4:    00000000    ....    DCD    0
        0x000020b8:    00b71b00    ....    DCD    12000000
        0x000020bc:    00b71b00    ....    DCD    12000000
        0x000020c0:    00008000    ....    DCD    32768
        0x000020c4:    00000000    ....    DCD    0
        0x000020c8:    00b71b00    ....    DCD    12000000
    .constdata
    uc_hextab
        0x000020cc:    33323130    0123    DCD    858927408
        0x000020d0:    37363534    4567    DCD    926299444
        0x000020d4:    42413938    89AB    DCD    1111570744
        0x000020d8:    46454443    CDEF    DCD    1178944579
        0x000020dc:    00583040    @0X.    DCD    5779520
    lc_hextab
        0x000020e0:    33323130    0123    DCD    858927408
        0x000020e4:    37363534    4567    DCD    926299444
        0x000020e8:    62613938    89ab    DCD    1650538808
        0x000020ec:    66656463    cdef    DCD    1717920867
        0x000020f0:    00783040    @0x.    DCD    7876672
    .conststring
        0x000020f4:    2d2d2b0a    .+--    DCD    757934858
        0x000020f8:    2d2d2d2d    ----    DCD    757935405
        0x000020fc:    2d2d2d2d    ----    DCD    757935405
        0x00002100:    2d2d2d2d    ----    DCD    757935405
        0x00002104:    2d2d2d2d    ----    DCD    757935405
        0x00002108:    2d2d2d2d    ----    DCD    757935405
        0x0000210c:    2d2d2d2d    ----    DCD    757935405
        0x00002110:    2d2d2d2d    ----    DCD    757935405
        0x00002114:    2d2d2d2d    ----    DCD    757935405
        0x00002118:    2d2d2d2d    ----    DCD    757935405
        0x0000211c:    2d2d2d2d    ----    DCD    757935405
        0x00002120:    2d2d2d2d    ----    DCD    757935405
        0x00002124:    2d2d2d2d    ----    DCD    757935405
        0x00002128:    2d2d2d2d    ----    DCD    757935405
        0x0000212c:    2d2d2d2d    ----    DCD    757935405
        0x00002130:    2d2d2d2d    ----    DCD    757935405
        0x00002134:    2d2d2d2d    ----    DCD    757935405
        0x00002138:    2d2d2d2d    ----    DCD    757935405
        0x0000213c:    0a2b2d2d    --+.    DCD    170601773
        0x00002140:    00000000    ....    DCD    0
        0x00002144:    2d2d2d2b    +---    DCD    757935403
        0x00002148:    2d2d2d2d    ----    DCD    757935405
        0x0000214c:    2d2d2d2d    ----    DCD    757935405
        0x00002150:    2d2d2d2d    ----    DCD    757935405
        0x00002154:    2d2d2d2d    ----    DCD    757935405
        0x00002158:    2d2d2d2d    ----    DCD    757935405
        0x0000215c:    2d2d2d2d    ----    DCD    757935405
        0x00002160:    2d2d2d2d    ----    DCD    757935405
        0x00002164:    2d2d2d2d    ----    DCD    757935405
        0x00002168:    2d2d2d2d    ----    DCD    757935405
        0x0000216c:    2d2d2d2d    ----    DCD    757935405
        0x00002170:    2d2d2d2d    ----    DCD    757935405
        0x00002174:    2d2d2d2d    ----    DCD    757935405
        0x00002178:    2d2d2d2d    ----    DCD    757935405
        0x0000217c:    2d2d2d2d    ----    DCD    757935405
        0x00002180:    2d2d2d2d    ----    DCD    757935405
        0x00002184:    2d2d2d2d    ----    DCD    757935405
        0x00002188:    2d2d2d2d    ----    DCD    757935405
        0x0000218c:    000a2b2d    -+..    DCD    666413
        0x00002190:    2020207c    |       DCD    538976380
        0x00002194:    20202020            DCD    538976288
        0x00002198:    20202020            DCD    538976288
        0x0000219c:    20202020            DCD    538976288
        0x000021a0:    20202020            DCD    538976288
        0x000021a4:    20202020            DCD    538976288
        0x000021a8:    20484946    FIH     DCD    541608262
        0x000021ac:    6c475241    ARGl    DCD    1816613441
        0x000021b0:    20737361    ass     DCD    544437089
        0x000021b4:    73726576    vers    DCD    1936876918
        0x000021b8:    206e6f69    ion     DCD    544108393
        0x000021bc:    20302e31    1.0     DCD    540028465
        0x000021c0:    20202020            DCD    538976288
        0x000021c4:    20202020            DCD    538976288
        0x000021c8:    20202020            DCD    538976288
        0x000021cc:    20202020            DCD    538976288
        0x000021d0:    20202020            DCD    538976288
        0x000021d4:    20202020            DCD    538976288
        0x000021d8:    000a7c20     |..    DCD    687136
    Region$$Table$$Base
        0x000021dc:    000021fc    .!..    DCD    8700
        0x000021e0:    20000000    ...     DCD    536870912
        0x000021e4:    00001ac4    ....    DCD    6852
        0x000021e8:    0000071a    ....    DCD    1818
        0x000021ec:    00003440    @4..    DCD    13376
        0x000021f0:    20001ac4    ...     DCD    536877764
        0x000021f4:    00000a64    d...    DCD    2660
        0x000021f8:    00000104    ....    DCD    260
    Region$$Table$$Limit

** Section #2 'RW_IRAM1' (SHT_PROGBITS) [SHF_ALLOC + SHF_WRITE]
    Size   : 4676 bytes (alignment 4)
    Address: 0x20000000


** Section #3 'RW_IRAM1' (SHT_NOBITS) [SHF_ALLOC + SHF_WRITE]
    Size   : 2660 bytes (alignment 8)
    Address: 0x20001ac4


** Section #4 '.debug_abbrev' (SHT_PROGBITS)
    Size   : 1476 bytes


** Section #5 '.debug_frame' (SHT_PROGBITS)
    Size   : 2724 bytes


** Section #6 '.debug_info' (SHT_PROGBITS)
    Size   : 33192 bytes


** Section #7 '.debug_line' (SHT_PROGBITS)
    Size   : 12424 bytes


** Section #8 '.debug_loc' (SHT_PROGBITS)
    Size   : 4584 bytes


** Section #9 '.debug_macinfo' (SHT_PROGBITS)
    Size   : 241972 bytes


** Section #10 '.debug_pubnames' (SHT_PROGBITS)
    Size   : 2120 bytes


** Section #11 '.symtab' (SHT_SYMTAB)
    Size   : 9328 bytes (alignment 4)
    String table #12 '.strtab'
    Last local symbol no. 386


** Section #12 '.strtab' (SHT_STRTAB)
    Size   : 7620 bytes


** Section #13 '.note' (SHT_NOTE)
    Size   : 28 bytes (alignment 4)


** Section #14 '.comment' (SHT_PROGBITS)
    Size   : 12284 bytes


** Section #15 '.shstrtab' (SHT_STRTAB)
    Size   : 156 bytes


